

HI-TECH Software PIC LITE Macro Assembler V9.70 build 5239 
                                                                                               Thu Oct 06 01:28:55 2016

HI-TECH Software Omniscient Code Generator (Lite mode) build 5239
     1  0000                     opt subtitle "HI-TECH Software Omniscient Code Generator (Lite mode) build 5239"
     2                           
     3                           opt pagewidth 120
     4                           
     5                           	opt lm
     6                           
     7                           	processor	16F877A
     8                           clrc	macro
     9                           	bcf	3,0
    10  0000                     	endm
    11                           clrz	macro
    12                           	bcf	3,2
    13  0000                     	endm
    14                           setc	macro
    15                           	bsf	3,0
    16  0000                     	endm
    17                           setz	macro
    18                           	bsf	3,2
    19  0000                     	endm
    20                           skipc	macro
    21                           	btfss	3,0
    22  0000                     	endm
    23                           skipz	macro
    24                           	btfss	3,2
    25  0000                     	endm
    26                           skipnc	macro
    27                           	btfsc	3,0
    28  0000                     	endm
    29                           skipnz	macro
    30                           	btfsc	3,2
    31  0000                     	endm
    32  0000                     indf	equ	0
    33  0000                     indf0	equ	0
    34  0002                     pc	equ	2
    35  0002                     pcl	equ	2
    36  0003                     status	equ	3
    37  0004                     fsr	equ	4
    38  0004                     fsr0	equ	4
    39  0001                     c	equ	1
    40  0000                     z	equ	0
    41  000A                     pclath	equ	10
    42                           # 3 "C:\Users\Jarvis\Desktop\PIC16f877a_coding\LCD_interfacing_4_bit\lcd.c"
    43                           	psect config,class=CONFIG,delta=2 ;#
    44                           # 3 "C:\Users\Jarvis\Desktop\PIC16f877a_coding\LCD_interfacing_4_bit\lcd.c"
    45  2007  3F3B               	dw 0x3f3b ;#
    46                           ;BANK0:	_main->_lcd_float
    47                           ;BANK0:	_lcd_float->_lcd_integer
    48                           ;BANK0:	_lcd_integer->___fttol
    49                           ;BANK0:	___fttol->___ftmul
    50                           ;COMMON:	___ftmul->___ftadd
    51                           ;BANK0:	___ftadd->___ftneg
    52                           ;COMMON:	___ftneg->___awtoft
    53                           ;BANK0:	___ftneg->___awtoft
    54                           ;COMMON:	___ftadd->___awtoft
    55                           ;BANK0:	___ftmul->___ftadd
    56                           ;BANK0:	___ftadd->___ftneg
    57                           ;COMMON:	___ftneg->___awtoft
    58                           ;BANK0:	___ftneg->___awtoft
    59                           ;COMMON:	___ftadd->___awtoft
    60                           ;COMMON:	___fttol->___ftadd
    61                           ;BANK0:	___ftadd->___ftneg
    62                           ;COMMON:	___ftneg->___awtoft
    63                           ;BANK0:	___ftneg->___awtoft
    64                           ;COMMON:	___ftadd->___awtoft
    65                           ;BANK1:	_lcd_integer->___fttol
    66                           ;BANK0:	___fttol->___ftmul
    67                           ;COMMON:	___ftmul->___ftadd
    68                           ;BANK0:	___ftadd->___ftneg
    69                           ;COMMON:	___ftneg->___awtoft
    70                           ;BANK0:	___ftneg->___awtoft
    71                           ;COMMON:	___ftadd->___awtoft
    72                           ;BANK0:	___ftmul->___ftadd
    73                           ;BANK0:	___ftadd->___ftneg
    74                           ;COMMON:	___ftneg->___awtoft
    75                           ;BANK0:	___ftneg->___awtoft
    76                           ;COMMON:	___ftadd->___awtoft
    77                           ;COMMON:	___fttol->___ftadd
    78                           ;BANK0:	___ftadd->___ftneg
    79                           ;COMMON:	___ftneg->___awtoft
    80                           ;BANK0:	___ftneg->___awtoft
    81                           ;COMMON:	___ftadd->___awtoft
    82                           ;COMMON:	_lcd_integer->___ftadd
    83                           ;BANK0:	___ftadd->___ftneg
    84                           ;COMMON:	___ftneg->___awtoft
    85                           ;BANK0:	___ftneg->___awtoft
    86                           ;COMMON:	___ftadd->___awtoft
    87                           ;BANK1:	_lcd_float->_lcd_integer
    88                           ;BANK0:	_lcd_integer->___fttol
    89                           ;BANK0:	___fttol->___ftmul
    90                           ;COMMON:	___ftmul->___ftadd
    91                           ;BANK0:	___ftadd->___ftneg
    92                           ;COMMON:	___ftneg->___awtoft
    93                           ;BANK0:	___ftneg->___awtoft
    94                           ;COMMON:	___ftadd->___awtoft
    95                           ;BANK0:	___ftmul->___ftadd
    96                           ;BANK0:	___ftadd->___ftneg
    97                           ;COMMON:	___ftneg->___awtoft
    98                           ;BANK0:	___ftneg->___awtoft
    99                           ;COMMON:	___ftadd->___awtoft
   100                           ;COMMON:	___fttol->___ftadd
   101                           ;BANK0:	___ftadd->___ftneg
   102                           ;COMMON:	___ftneg->___awtoft
   103                           ;BANK0:	___ftneg->___awtoft
   104                           ;COMMON:	___ftadd->___awtoft
   105                           ;BANK1:	_lcd_integer->___fttol
   106                           ;BANK0:	___fttol->___ftmul
   107                           ;COMMON:	___ftmul->___ftadd
   108                           ;BANK0:	___ftadd->___ftneg
   109                           ;COMMON:	___ftneg->___awtoft
   110                           ;BANK0:	___ftneg->___awtoft
   111                           ;COMMON:	___ftadd->___awtoft
   112                           ;BANK0:	___ftmul->___ftadd
   113                           ;BANK0:	___ftadd->___ftneg
   114                           ;COMMON:	___ftneg->___awtoft
   115                           ;BANK0:	___ftneg->___awtoft
   116                           ;COMMON:	___ftadd->___awtoft
   117                           ;COMMON:	___fttol->___ftadd
   118                           ;BANK0:	___ftadd->___ftneg
   119                           ;COMMON:	___ftneg->___awtoft
   120                           ;BANK0:	___ftneg->___awtoft
   121                           ;COMMON:	___ftadd->___awtoft
   122                           ;COMMON:	_lcd_integer->___ftadd
   123                           ;BANK0:	___ftadd->___ftneg
   124                           ;COMMON:	___ftneg->___awtoft
   125                           ;BANK0:	___ftneg->___awtoft
   126                           ;COMMON:	___ftadd->___awtoft
   127                           ;COMMON:	_lcd_float->___ftadd
   128                           ;BANK0:	___ftadd->___ftneg
   129                           ;COMMON:	___ftneg->___awtoft
   130                           ;BANK0:	___ftneg->___awtoft
   131                           ;COMMON:	___ftadd->___awtoft
   132                           ;BANK1:	_main->_lcd_float
   133                           ;BANK0:	_lcd_float->_lcd_integer
   134                           ;BANK0:	_lcd_integer->___fttol
   135                           ;BANK0:	___fttol->___ftmul
   136                           ;COMMON:	___ftmul->___ftadd
   137                           ;BANK0:	___ftadd->___ftneg
   138                           ;COMMON:	___ftneg->___awtoft
   139                           ;BANK0:	___ftneg->___awtoft
   140                           ;COMMON:	___ftadd->___awtoft
   141                           ;BANK0:	___ftmul->___ftadd
   142                           ;BANK0:	___ftadd->___ftneg
   143                           ;COMMON:	___ftneg->___awtoft
   144                           ;BANK0:	___ftneg->___awtoft
   145                           ;COMMON:	___ftadd->___awtoft
   146                           ;COMMON:	___fttol->___ftadd
   147                           ;BANK0:	___ftadd->___ftneg
   148                           ;COMMON:	___ftneg->___awtoft
   149                           ;BANK0:	___ftneg->___awtoft
   150                           ;COMMON:	___ftadd->___awtoft
   151                           ;BANK1:	_lcd_integer->___fttol
   152                           ;BANK0:	___fttol->___ftmul
   153                           ;COMMON:	___ftmul->___ftadd
   154                           ;BANK0:	___ftadd->___ftneg
   155                           ;COMMON:	___ftneg->___awtoft
   156                           ;BANK0:	___ftneg->___awtoft
   157                           ;COMMON:	___ftadd->___awtoft
   158                           ;BANK0:	___ftmul->___ftadd
   159                           ;BANK0:	___ftadd->___ftneg
   160                           ;COMMON:	___ftneg->___awtoft
   161                           ;BANK0:	___ftneg->___awtoft
   162                           ;COMMON:	___ftadd->___awtoft
   163                           ;COMMON:	___fttol->___ftadd
   164                           ;BANK0:	___ftadd->___ftneg
   165                           ;COMMON:	___ftneg->___awtoft
   166                           ;BANK0:	___ftneg->___awtoft
   167                           ;COMMON:	___ftadd->___awtoft
   168                           ;COMMON:	_lcd_integer->___ftadd
   169                           ;BANK0:	___ftadd->___ftneg
   170                           ;COMMON:	___ftneg->___awtoft
   171                           ;BANK0:	___ftneg->___awtoft
   172                           ;COMMON:	___ftadd->___awtoft
   173                           ;BANK1:	_lcd_float->_lcd_integer
   174                           ;BANK0:	_lcd_integer->___fttol
   175                           ;BANK0:	___fttol->___ftmul
   176                           ;COMMON:	___ftmul->___ftadd
   177                           ;BANK0:	___ftadd->___ftneg
   178                           ;COMMON:	___ftneg->___awtoft
   179                           ;BANK0:	___ftneg->___awtoft
   180                           ;COMMON:	___ftadd->___awtoft
   181                           ;BANK0:	___ftmul->___ftadd
   182                           ;BANK0:	___ftadd->___ftneg
   183                           ;COMMON:	___ftneg->___awtoft
   184                           ;BANK0:	___ftneg->___awtoft
   185                           ;COMMON:	___ftadd->___awtoft
   186                           ;COMMON:	___fttol->___ftadd
   187                           ;BANK0:	___ftadd->___ftneg
   188                           ;COMMON:	___ftneg->___awtoft
   189                           ;BANK0:	___ftneg->___awtoft
   190                           ;COMMON:	___ftadd->___awtoft
   191                           ;BANK1:	_lcd_integer->___fttol
   192                           ;BANK0:	___fttol->___ftmul
   193                           ;COMMON:	___ftmul->___ftadd
   194                           ;BANK0:	___ftadd->___ftneg
   195                           ;COMMON:	___ftneg->___awtoft
   196                           ;BANK0:	___ftneg->___awtoft
   197                           ;COMMON:	___ftadd->___awtoft
   198                           ;BANK0:	___ftmul->___ftadd
   199                           ;BANK0:	___ftadd->___ftneg
   200                           ;COMMON:	___ftneg->___awtoft
   201                           ;BANK0:	___ftneg->___awtoft
   202                           ;COMMON:	___ftadd->___awtoft
   203                           ;COMMON:	___fttol->___ftadd
   204                           ;BANK0:	___ftadd->___ftneg
   205                           ;COMMON:	___ftneg->___awtoft
   206                           ;BANK0:	___ftneg->___awtoft
   207                           ;COMMON:	___ftadd->___awtoft
   208                           ;COMMON:	_lcd_integer->___ftadd
   209                           ;BANK0:	___ftadd->___ftneg
   210                           ;COMMON:	___ftneg->___awtoft
   211                           ;BANK0:	___ftneg->___awtoft
   212                           ;COMMON:	___ftadd->___awtoft
   213                           ;COMMON:	_lcd_float->___ftadd
   214                           ;BANK0:	___ftadd->___ftneg
   215                           ;COMMON:	___ftneg->___awtoft
   216                           ;BANK0:	___ftneg->___awtoft
   217                           ;COMMON:	___ftadd->___awtoft
   218                           	FNCALL	_main,_lcd_init
   219                           	FNCALL	_main,_lcd_pattern
   220                           	FNCALL	_main,_lcd_float
   221                           	FNCALL	_main,_lcd_command
   222                           	FNCALL	_main,_lcd_data
   223                           	FNCALL	_lcd_pattern,_lcd_command
   224                           	FNCALL	_lcd_pattern,_lcd_data
   225                           	FNCALL	_lcd_float,___fttol
   226                           	FNCALL	_lcd_float,_lcd_integer
   227                           	FNCALL	_lcd_float,_lcd_data
   228                           	FNCALL	_lcd_float,___awtoft
   229                           	FNCALL	_lcd_float,___ftneg
   230                           	FNCALL	_lcd_float,___ftadd
   231                           	FNCALL	_lcd_float,___ftmul
   232                           	FNCALL	_lcd_init,_lcd_command
   233                           	FNCALL	_lcd_init,_lcd_data
   234                           	FNCALL	___awtoft,___ftpack
   235                           	FNCALL	___ftmul,___ftpack
   236                           	FNCALL	___ftadd,___ftpack
   237                           	FNCALL	_lcd_integer,___aldiv
   238                           	FNCALL	_lcd_integer,___lmul
   239                           	FNCALL	_lcd_integer,_lcd_data
   240                           	FNCALL	_lcd_integer,___almod
   241                           	FNROOT	_main
   242                           	global	main@F530
   243                           psect	idataBANK0,class=CODE,space=0,delta=2
   244                           global __pidataBANK0
   245  0F38                     __pidataBANK0:
   246                           	file	"C:\Users\Jarvis\Desktop\PIC16f877a_coding\LCD_interfacing_4_bit\lcd.c"
   247                           	line	94
   248                           
   249                           ;initializer for main@F530
   250  0F38  341F               	retlw	01Fh
   251  0F39  3410               	retlw	010h
   252  0F3A  341F               	retlw	01Fh
   253  0F3B  3410               	retlw	010h
   254  0F3C  341F               	retlw	01Fh
   255  0F3D  341F               	retlw	01Fh
   256  0F3E  341F               	retlw	01Fh
   257  0F3F  341F               	retlw	01Fh
   258                           	global	_ADCON0
   259  001F                     _ADCON0  equ     31
   260                           	global	_ADRESH
   261  001E                     _ADRESH  equ     30
   262                           	global	_CCP1CON
   263  0017                     _CCP1CON  equ     23
   264                           	global	_CCP2CON
   265  001D                     _CCP2CON  equ     29
   266                           	global	_CCPR1H
   267  0016                     _CCPR1H  equ     22
   268                           	global	_CCPR1L
   269  0015                     _CCPR1L  equ     21
   270                           	global	_CCPR2H
   271  001C                     _CCPR2H  equ     28
   272                           	global	_CCPR2L
   273  001B                     _CCPR2L  equ     27
   274                           	global	_FSR
   275  0004                     _FSR  equ     4
   276                           	global	_INDF
   277  0000                     _INDF  equ     0
   278                           	global	_INTCON
   279  000B                     _INTCON  equ     11
   280                           	global	_PCL
   281  0002                     _PCL  equ     2
   282                           	global	_PCLATH
   283  000A                     _PCLATH  equ     10
   284                           	global	_PIR1
   285  000C                     _PIR1  equ     12
   286                           	global	_PIR2
   287  000D                     _PIR2  equ     13
   288                           	global	_PORTA
   289  0005                     _PORTA  equ     5
   290                           	global	_PORTB
   291  0006                     _PORTB  equ     6
   292                           	global	_PORTC
   293  0007                     _PORTC  equ     7
   294                           	global	_PORTD
   295  0008                     _PORTD  equ     8
   296                           	global	_PORTE
   297  0009                     _PORTE  equ     9
   298                           	global	_RCREG
   299  001A                     _RCREG  equ     26
   300                           	global	_RCSTA
   301  0018                     _RCSTA  equ     24
   302                           	global	_SSPBUF
   303  0013                     _SSPBUF  equ     19
   304                           	global	_SSPCON
   305  0014                     _SSPCON  equ     20
   306                           	global	_STATUS
   307  0003                     _STATUS  equ     3
   308                           	global	_T1CON
   309  0010                     _T1CON  equ     16
   310                           	global	_T2CON
   311  0012                     _T2CON  equ     18
   312                           	global	_TMR0
   313  0001                     _TMR0  equ     1
   314                           	global	_TMR1H
   315  000F                     _TMR1H  equ     15
   316                           	global	_TMR1L
   317  000E                     _TMR1L  equ     14
   318                           	global	_TMR2
   319  0011                     _TMR2  equ     17
   320                           	global	_TXREG
   321  0019                     _TXREG  equ     25
   322                           	global	_ADCS0
   323  00FE                     _ADCS0  equ     254
   324                           	global	_ADCS1
   325  00FF                     _ADCS1  equ     255
   326                           	global	_ADDEN
   327  00C3                     _ADDEN  equ     195
   328                           	global	_ADGO
   329  00FA                     _ADGO  equ     250
   330                           	global	_ADIF
   331  0066                     _ADIF  equ     102
   332                           	global	_ADON
   333  00F8                     _ADON  equ     248
   334                           	global	_BCLIF
   335  006B                     _BCLIF  equ     107
   336                           	global	_CARRY
   337  0018                     _CARRY  equ     24
   338                           	global	_CCP1IF
   339  0062                     _CCP1IF  equ     98
   340                           	global	_CCP1M0
   341  00B8                     _CCP1M0  equ     184
   342                           	global	_CCP1M1
   343  00B9                     _CCP1M1  equ     185
   344                           	global	_CCP1M2
   345  00BA                     _CCP1M2  equ     186
   346                           	global	_CCP1M3
   347  00BB                     _CCP1M3  equ     187
   348                           	global	_CCP1X
   349  00BD                     _CCP1X  equ     189
   350                           	global	_CCP1Y
   351  00BC                     _CCP1Y  equ     188
   352                           	global	_CCP2IF
   353  0068                     _CCP2IF  equ     104
   354                           	global	_CCP2M0
   355  00E8                     _CCP2M0  equ     232
   356                           	global	_CCP2M1
   357  00E9                     _CCP2M1  equ     233
   358                           	global	_CCP2M2
   359  00EA                     _CCP2M2  equ     234
   360                           	global	_CCP2M3
   361  00EB                     _CCP2M3  equ     235
   362                           	global	_CCP2X
   363  00ED                     _CCP2X  equ     237
   364                           	global	_CCP2Y
   365  00EC                     _CCP2Y  equ     236
   366                           	global	_CHS0
   367  00FB                     _CHS0  equ     251
   368                           	global	_CHS1
   369  00FC                     _CHS1  equ     252
   370                           	global	_CHS2
   371  00FD                     _CHS2  equ     253
   372                           	global	_CKP
   373  00A4                     _CKP  equ     164
   374                           	global	_CMIF
   375  006E                     _CMIF  equ     110
   376                           	global	_CREN
   377  00C4                     _CREN  equ     196
   378                           	global	_DC
   379  0019                     _DC  equ     25
   380                           	global	_EEIF
   381  006C                     _EEIF  equ     108
   382                           	global	_FERR
   383  00C2                     _FERR  equ     194
   384                           	global	_GIE
   385  005F                     _GIE  equ     95
   386                           	global	_GODONE
   387  00FA                     _GODONE  equ     250
   388                           	global	_INTE
   389  005C                     _INTE  equ     92
   390                           	global	_INTF
   391  0059                     _INTF  equ     89
   392                           	global	_IRP
   393  001F                     _IRP  equ     31
   394                           	global	_OERR
   395  00C1                     _OERR  equ     193
   396                           	global	_PD
   397  001B                     _PD  equ     27
   398                           	global	_PEIE
   399  005E                     _PEIE  equ     94
   400                           	global	_PSPIF
   401  0067                     _PSPIF  equ     103
   402                           	global	_RA0
   403  0028                     _RA0  equ     40
   404                           	global	_RA1
   405  0029                     _RA1  equ     41
   406                           	global	_RA2
   407  002A                     _RA2  equ     42
   408                           	global	_RA3
   409  002B                     _RA3  equ     43
   410                           	global	_RA4
   411  002C                     _RA4  equ     44
   412                           	global	_RA5
   413  002D                     _RA5  equ     45
   414                           	global	_RB0
   415  0030                     _RB0  equ     48
   416                           	global	_RB1
   417  0031                     _RB1  equ     49
   418                           	global	_RB2
   419  0032                     _RB2  equ     50
   420                           	global	_RB3
   421  0033                     _RB3  equ     51
   422                           	global	_RB4
   423  0034                     _RB4  equ     52
   424                           	global	_RB5
   425  0035                     _RB5  equ     53
   426                           	global	_RB6
   427  0036                     _RB6  equ     54
   428                           	global	_RB7
   429  0037                     _RB7  equ     55
   430                           	global	_RBIE
   431  005B                     _RBIE  equ     91
   432                           	global	_RBIF
   433  0058                     _RBIF  equ     88
   434                           	global	_RC0
   435  0038                     _RC0  equ     56
   436                           	global	_RC1
   437  0039                     _RC1  equ     57
   438                           	global	_RC2
   439  003A                     _RC2  equ     58
   440                           	global	_RC3
   441  003B                     _RC3  equ     59
   442                           	global	_RC4
   443  003C                     _RC4  equ     60
   444                           	global	_RC5
   445  003D                     _RC5  equ     61
   446                           	global	_RC6
   447  003E                     _RC6  equ     62
   448                           	global	_RC7
   449  003F                     _RC7  equ     63
   450                           	global	_RCIF
   451  0065                     _RCIF  equ     101
   452                           	global	_RD0
   453  0040                     _RD0  equ     64
   454                           	global	_RD1
   455  0041                     _RD1  equ     65
   456                           	global	_RD2
   457  0042                     _RD2  equ     66
   458                           	global	_RD3
   459  0043                     _RD3  equ     67
   460                           	global	_RD4
   461  0044                     _RD4  equ     68
   462                           	global	_RD5
   463  0045                     _RD5  equ     69
   464                           	global	_RD6
   465  0046                     _RD6  equ     70
   466                           	global	_RD7
   467  0047                     _RD7  equ     71
   468                           	global	_RE0
   469  0048                     _RE0  equ     72
   470                           	global	_RE1
   471  0049                     _RE1  equ     73
   472                           	global	_RE2
   473  004A                     _RE2  equ     74
   474                           	global	_RP0
   475  001D                     _RP0  equ     29
   476                           	global	_RP1
   477  001E                     _RP1  equ     30
   478                           	global	_RX9
   479  00C6                     _RX9  equ     198
   480                           	global	_RX9D
   481  00C0                     _RX9D  equ     192
   482                           	global	_SPEN
   483  00C7                     _SPEN  equ     199
   484                           	global	_SREN
   485  00C5                     _SREN  equ     197
   486                           	global	_SSPEN
   487  00A5                     _SSPEN  equ     165
   488                           	global	_SSPIF
   489  0063                     _SSPIF  equ     99
   490                           	global	_SSPM0
   491  00A0                     _SSPM0  equ     160
   492                           	global	_SSPM1
   493  00A1                     _SSPM1  equ     161
   494                           	global	_SSPM2
   495  00A2                     _SSPM2  equ     162
   496                           	global	_SSPM3
   497  00A3                     _SSPM3  equ     163
   498                           	global	_SSPOV
   499  00A6                     _SSPOV  equ     166
   500                           	global	_T0IE
   501  005D                     _T0IE  equ     93
   502                           	global	_T0IF
   503  005A                     _T0IF  equ     90
   504                           	global	_T1CKPS0
   505  0084                     _T1CKPS0  equ     132
   506                           	global	_T1CKPS1
   507  0085                     _T1CKPS1  equ     133
   508                           	global	_T1OSCEN
   509  0083                     _T1OSCEN  equ     131
   510                           	global	_T1SYNC
   511  0082                     _T1SYNC  equ     130
   512                           	global	_T2CKPS0
   513  0090                     _T2CKPS0  equ     144
   514                           	global	_T2CKPS1
   515  0091                     _T2CKPS1  equ     145
   516                           	global	_TMR0IE
   517  005D                     _TMR0IE  equ     93
   518                           	global	_TMR0IF
   519  005A                     _TMR0IF  equ     90
   520                           	global	_TMR1CS
   521  0081                     _TMR1CS  equ     129
   522                           	global	_TMR1IF
   523  0060                     _TMR1IF  equ     96
   524                           	global	_TMR1ON
   525  0080                     _TMR1ON  equ     128
   526                           	global	_TMR2IF
   527  0061                     _TMR2IF  equ     97
   528                           	global	_TMR2ON
   529  0092                     _TMR2ON  equ     146
   530                           	global	_TO
   531  001C                     _TO  equ     28
   532                           	global	_TOUTPS0
   533  0093                     _TOUTPS0  equ     147
   534                           	global	_TOUTPS1
   535  0094                     _TOUTPS1  equ     148
   536                           	global	_TOUTPS2
   537  0095                     _TOUTPS2  equ     149
   538                           	global	_TOUTPS3
   539  0096                     _TOUTPS3  equ     150
   540                           	global	_TXIF
   541  0064                     _TXIF  equ     100
   542                           	global	_WCOL
   543  00A7                     _WCOL  equ     167
   544                           	global	_ZERO
   545  001A                     _ZERO  equ     26
   546                           	global	_ADCON1
   547  009F                     _ADCON1  equ     159
   548                           	global	_ADRESL
   549  009E                     _ADRESL  equ     158
   550                           	global	_CMCON
   551  009C                     _CMCON  equ     156
   552                           	global	_CVRCON
   553  009D                     _CVRCON  equ     157
   554                           	global	_OPTION
   555  0081                     _OPTION  equ     129
   556                           	global	_PCON
   557  008E                     _PCON  equ     142
   558                           	global	_PIE1
   559  008C                     _PIE1  equ     140
   560                           	global	_PIE2
   561  008D                     _PIE2  equ     141
   562                           	global	_PR2
   563  0092                     _PR2  equ     146
   564                           	global	_SPBRG
   565  0099                     _SPBRG  equ     153
   566                           	global	_SSPADD
   567  0093                     _SSPADD  equ     147
   568                           	global	_SSPCON2
   569  0091                     _SSPCON2  equ     145
   570                           	global	_SSPSTAT
   571  0094                     _SSPSTAT  equ     148
   572                           	global	_TRISA
   573  0085                     _TRISA  equ     133
   574                           	global	_TRISB
   575  0086                     _TRISB  equ     134
   576                           	global	_TRISC
   577  0087                     _TRISC  equ     135
   578                           	global	_TRISD
   579  0088                     _TRISD  equ     136
   580                           	global	_TRISE
   581  0089                     _TRISE  equ     137
   582                           	global	_TXSTA
   583  0098                     _TXSTA  equ     152
   584                           	global	_ACKDT
   585  048D                     _ACKDT  equ     1165
   586                           	global	_ACKEN
   587  048C                     _ACKEN  equ     1164
   588                           	global	_ACKSTAT
   589  048E                     _ACKSTAT  equ     1166
   590                           	global	_ADCS2
   591  04FE                     _ADCS2  equ     1278
   592                           	global	_ADFM
   593  04FF                     _ADFM  equ     1279
   594                           	global	_ADIE
   595  0466                     _ADIE  equ     1126
   596                           	global	_BCLIE
   597  046B                     _BCLIE  equ     1131
   598                           	global	_BF
   599  04A0                     _BF  equ     1184
   600                           	global	_BOR
   601  0470                     _BOR  equ     1136
   602                           	global	_BRGH
   603  04C2                     _BRGH  equ     1218
   604                           	global	_C1INV
   605  04E4                     _C1INV  equ     1252
   606                           	global	_C1OUT
   607  04E6                     _C1OUT  equ     1254
   608                           	global	_C2INV
   609  04E5                     _C2INV  equ     1253
   610                           	global	_C2OUT
   611  04E7                     _C2OUT  equ     1255
   612                           	global	_CCP1IE
   613  0462                     _CCP1IE  equ     1122
   614                           	global	_CCP2IE
   615  0468                     _CCP2IE  equ     1128
   616                           	global	_CIS
   617  04E3                     _CIS  equ     1251
   618                           	global	_CKE
   619  04A6                     _CKE  equ     1190
   620                           	global	_CM0
   621  04E0                     _CM0  equ     1248
   622                           	global	_CM1
   623  04E1                     _CM1  equ     1249
   624                           	global	_CM2
   625  04E2                     _CM2  equ     1250
   626                           	global	_CMIE
   627  046E                     _CMIE  equ     1134
   628                           	global	_CSRC
   629  04C7                     _CSRC  equ     1223
   630                           	global	_CVR0
   631  04E8                     _CVR0  equ     1256
   632                           	global	_CVR1
   633  04E9                     _CVR1  equ     1257
   634                           	global	_CVR2
   635  04EA                     _CVR2  equ     1258
   636                           	global	_CVR3
   637  04EB                     _CVR3  equ     1259
   638                           	global	_CVREN
   639  04EF                     _CVREN  equ     1263
   640                           	global	_CVROE
   641  04EE                     _CVROE  equ     1262
   642                           	global	_CVRR
   643  04ED                     _CVRR  equ     1261
   644                           	global	_DA
   645  04A5                     _DA  equ     1189
   646                           	global	_EEIE
   647  046C                     _EEIE  equ     1132
   648                           	global	_GCEN
   649  048F                     _GCEN  equ     1167
   650                           	global	_IBF
   651  044F                     _IBF  equ     1103
   652                           	global	_IBOV
   653  044D                     _IBOV  equ     1101
   654                           	global	_INTEDG
   655  040E                     _INTEDG  equ     1038
   656                           	global	_OBF
   657  044E                     _OBF  equ     1102
   658                           	global	_PCFG0
   659  04F8                     _PCFG0  equ     1272
   660                           	global	_PCFG1
   661  04F9                     _PCFG1  equ     1273
   662                           	global	_PCFG2
   663  04FA                     _PCFG2  equ     1274
   664                           	global	_PCFG3
   665  04FB                     _PCFG3  equ     1275
   666                           	global	_PEN
   667  048A                     _PEN  equ     1162
   668                           	global	_POR
   669  0471                     _POR  equ     1137
   670                           	global	_PS0
   671  0408                     _PS0  equ     1032
   672                           	global	_PS1
   673  0409                     _PS1  equ     1033
   674                           	global	_PS2
   675  040A                     _PS2  equ     1034
   676                           	global	_PSA
   677  040B                     _PSA  equ     1035
   678                           	global	_PSPIE
   679  0467                     _PSPIE  equ     1127
   680                           	global	_PSPMODE
   681  044C                     _PSPMODE  equ     1100
   682                           	global	_RBPU
   683  040F                     _RBPU  equ     1039
   684                           	global	_RCEN
   685  048B                     _RCEN  equ     1163
   686                           	global	_RCIE
   687  0465                     _RCIE  equ     1125
   688                           	global	_RSEN
   689  0489                     _RSEN  equ     1161
   690                           	global	_RW
   691  04A2                     _RW  equ     1186
   692                           	global	_SEN
   693  0488                     _SEN  equ     1160
   694                           	global	_SMP
   695  04A7                     _SMP  equ     1191
   696                           	global	_SSPIE
   697  0463                     _SSPIE  equ     1123
   698                           	global	_START
   699  04A3                     _START  equ     1187
   700                           	global	_STOP
   701  04A4                     _STOP  equ     1188
   702                           	global	_SYNC
   703  04C4                     _SYNC  equ     1220
   704                           	global	_T0CS
   705  040D                     _T0CS  equ     1037
   706                           	global	_T0SE
   707  040C                     _T0SE  equ     1036
   708                           	global	_TMR1IE
   709  0460                     _TMR1IE  equ     1120
   710                           	global	_TMR2IE
   711  0461                     _TMR2IE  equ     1121
   712                           	global	_TRISA0
   713  0428                     _TRISA0  equ     1064
   714                           	global	_TRISA1
   715  0429                     _TRISA1  equ     1065
   716                           	global	_TRISA2
   717  042A                     _TRISA2  equ     1066
   718                           	global	_TRISA3
   719  042B                     _TRISA3  equ     1067
   720                           	global	_TRISA4
   721  042C                     _TRISA4  equ     1068
   722                           	global	_TRISA5
   723  042D                     _TRISA5  equ     1069
   724                           	global	_TRISB0
   725  0430                     _TRISB0  equ     1072
   726                           	global	_TRISB1
   727  0431                     _TRISB1  equ     1073
   728                           	global	_TRISB2
   729  0432                     _TRISB2  equ     1074
   730                           	global	_TRISB3
   731  0433                     _TRISB3  equ     1075
   732                           	global	_TRISB4
   733  0434                     _TRISB4  equ     1076
   734                           	global	_TRISB5
   735  0435                     _TRISB5  equ     1077
   736                           	global	_TRISB6
   737  0436                     _TRISB6  equ     1078
   738                           	global	_TRISB7
   739  0437                     _TRISB7  equ     1079
   740                           	global	_TRISC0
   741  0438                     _TRISC0  equ     1080
   742                           	global	_TRISC1
   743  0439                     _TRISC1  equ     1081
   744                           	global	_TRISC2
   745  043A                     _TRISC2  equ     1082
   746                           	global	_TRISC3
   747  043B                     _TRISC3  equ     1083
   748                           	global	_TRISC4
   749  043C                     _TRISC4  equ     1084
   750                           	global	_TRISC5
   751  043D                     _TRISC5  equ     1085
   752                           	global	_TRISC6
   753  043E                     _TRISC6  equ     1086
   754                           	global	_TRISC7
   755  043F                     _TRISC7  equ     1087
   756                           	global	_TRISD0
   757  0440                     _TRISD0  equ     1088
   758                           	global	_TRISD1
   759  0441                     _TRISD1  equ     1089
   760                           	global	_TRISD2
   761  0442                     _TRISD2  equ     1090
   762                           	global	_TRISD3
   763  0443                     _TRISD3  equ     1091
   764                           	global	_TRISD4
   765  0444                     _TRISD4  equ     1092
   766                           	global	_TRISD5
   767  0445                     _TRISD5  equ     1093
   768                           	global	_TRISD6
   769  0446                     _TRISD6  equ     1094
   770                           	global	_TRISD7
   771  0447                     _TRISD7  equ     1095
   772                           	global	_TRISE0
   773  0448                     _TRISE0  equ     1096
   774                           	global	_TRISE1
   775  0449                     _TRISE1  equ     1097
   776                           	global	_TRISE2
   777  044A                     _TRISE2  equ     1098
   778                           	global	_TRMT
   779  04C1                     _TRMT  equ     1217
   780                           	global	_TX9
   781  04C6                     _TX9  equ     1222
   782                           	global	_TX9D
   783  04C0                     _TX9D  equ     1216
   784                           	global	_TXEN
   785  04C5                     _TXEN  equ     1221
   786                           	global	_TXIE
   787  0464                     _TXIE  equ     1124
   788                           	global	_UA
   789  04A1                     _UA  equ     1185
   790                           	global	_EEADR
   791  010D                     _EEADR  equ     269
   792                           	global	_EEADRH
   793  010F                     _EEADRH  equ     271
   794                           	global	_EEADRL
   795  010D                     _EEADRL  equ     269
   796                           	global	_EEDATA
   797  010C                     _EEDATA  equ     268
   798                           	global	_EEDATH
   799  010E                     _EEDATH  equ     270
   800                           	global	_EECON1
   801  018C                     _EECON1  equ     396
   802                           	global	_EECON2
   803  018D                     _EECON2  equ     397
   804                           	global	_EEPGD
   805  0C67                     _EEPGD  equ     3175
   806                           	global	_RD
   807  0C60                     _RD  equ     3168
   808                           	global	_WR
   809  0C61                     _WR  equ     3169
   810                           	global	_WREN
   811  0C62                     _WREN  equ     3170
   812                           	global	_WRERR
   813  0C63                     _WRERR  equ     3171
   814                           	file	"lcd.as"
   815                           	line	#
   816                           psect cinit,class=CODE,delta=2
   817                           global start_initialization
   818  0007                     start_initialization:
   819                           
   820                           psect	dataBANK0,class=BANK0,space=1
   821                           global __pdataBANK0
   822  0058                     __pdataBANK0:
   823                           	file	"C:\Users\Jarvis\Desktop\PIC16f877a_coding\LCD_interfacing_4_bit\lcd.c"
   824                           	line	94
   825  0058                     main@F530:
   826  0058                            ds      8
   827                           
   828                           global btemp
   829                           psect inittext,class=CODE,delta=2
   830                           global init_fetch,btemp
   831                           ;	Called with low address in FSR and high address in W
   832  0F40                     init_fetch:
   833  0F40  087E               	movf btemp,w
   834  0F41  008A               	movwf pclath
   835  0F42  087F               	movf btemp+1,w
   836  0F43  0082               	movwf pc
   837                           global init_ram
   838                           ;Called with:
   839                           ;	high address of idata address in btemp 
   840                           ;	low address of idata address in btemp+1 
   841                           ;	low address of data in FSR
   842                           ;	high address + 1 of data in btemp-1
   843  0F44                     init_ram:
   844  0F44  2740  120A  158A   	fcall init_fetch
   845  0F47  0080               	movwf indf,f
   846  0F48  0A84               	incf fsr,f
   847  0F49  0804               	movf fsr,w
   848  0F4A  067D               	xorwf btemp-1,w
   849  0F4B  1903               	btfsc status,2
   850  0F4C  3400               	retlw 0
   851  0F4D  0AFF               	incf btemp+1,f
   852  0F4E  1903               	btfsc status,2
   853  0F4F  0AFE               	incf btemp,f
   854  0F50  2F44               	goto init_ram
   855                           ; Initialize objects allocated to BANK0
   856                           psect cinit,class=CODE,delta=2
   857                           global init_ram, __pidataBANK0
   858  0007  1383               	bcf	status, 7	;select IRP bank0
   859  0008  3060               	movlw low(__pdataBANK0+8)
   860  0009  00FD               	movwf btemp-1,f
   861  000A  300F               	movlw high(__pidataBANK0)
   862  000B  00FE               	movwf btemp,f
   863  000C  3038               	movlw low(__pidataBANK0)
   864  000D  00FF               	movwf btemp+1,f
   865  000E  3058               	movlw low(__pdataBANK0)
   866  000F  0084               	movwf fsr,f
   867  0010  120A  158A  2744   	fcall init_ram
              120A  118A         
   868                           psect cinit,class=CODE,delta=2
   869                           global end_of_initialization
   870                           
   871                           ;End of C runtime variable initationation code
   872                           
   873  0015                     end_of_initialization:
   874  0015  0183               clrf status
   875  0016  120A  118A  284A   ljmp _main	;jump to C main() function
   876                           psect	cstackBANK1,class=BANK1,space=1
   877                           global __pcstackBANK1
   878  00A0                     __pcstackBANK1:
   879                           	global	?___fttol
   880  00A0                     ?___fttol: ;@ 0x0
   881                           	global	___fttol@f1
   882  00A0                     ___fttol@f1:	; 3 bytes @ 0x0
   883  00A0                     	ds	4
   884                           	global	lcd_integer@y
   885  00A4                     lcd_integer@y:	; 4 bytes @ 0x4
   886  00A4                     	ds	4
   887                           	global	lcd_integer@m
   888  00A8                     lcd_integer@m:	; 4 bytes @ 0x8
   889  00A8                     	ds	4
   890                           	global	?_lcd_integer
   891  00AC                     ?_lcd_integer: ;@ 0xC
   892                           	global	lcd_integer@x
   893  00AC                     lcd_integer@x:	; 4 bytes @ 0xC
   894  00AC                     	ds	4
   895                           	global	?_lcd_float
   896  00B0                     ?_lcd_float: ;@ 0x10
   897                           	global	lcd_float@f
   898  00B0                     lcd_float@f:	; 3 bytes @ 0x10
   899  00B0                     	ds	3
   900                           	global	main@pattern
   901  00B3                     main@pattern:	; 8 bytes @ 0x13
   902  00B3                     	ds	8
   903                           psect	cstackCOMMON,class=COMMON,space=1
   904                           global __pcstackCOMMON
   905  0070                     __pcstackCOMMON:
   906                           	global	??___aldiv
   907  0070                     ??___aldiv: ;@ 0x0
   908                           	global	??___lmul
   909  0070                     ??___lmul: ;@ 0x0
   910                           	global	??_lcd_data
   911  0070                     ??_lcd_data: ;@ 0x0
   912                           	global	??___almod
   913  0070                     ??___almod: ;@ 0x0
   914                           	global	??_lcd_command
   915  0070                     ??_lcd_command: ;@ 0x0
   916                           	global	??___ftpack
   917  0070                     ??___ftpack: ;@ 0x0
   918  0070                     	ds	1
   919                           	global	??_lcd_init
   920  0071                     ??_lcd_init: ;@ 0x1
   921                           	global	lcd_data@x
   922  0071                     lcd_data@x:	; 1 bytes @ 0x1
   923                           	global	lcd_command@x
   924  0071                     lcd_command@x:	; 1 bytes @ 0x1
   925                           	global	___almod@sign
   926  0071                     ___almod@sign:	; 1 bytes @ 0x1
   927                           	global	___lmul@product
   928  0071                     ___lmul@product:	; 4 bytes @ 0x1
   929  0071                     	ds	1
   930                           	global	___almod@counter
   931  0072                     ___almod@counter:	; 1 bytes @ 0x2
   932                           	global	lcd_command@i
   933  0072                     lcd_command@i:	; 2 bytes @ 0x2
   934                           	global	lcd_data@i
   935  0072                     lcd_data@i:	; 2 bytes @ 0x2
   936  0072                     	ds	2
   937                           	global	??_lcd_pattern
   938  0074                     ??_lcd_pattern: ;@ 0x4
   939                           	global	?_lcd_command
   940  0074                     ?_lcd_command: ;@ 0x4
   941                           	global	?_lcd_init
   942  0074                     ?_lcd_init: ;@ 0x4
   943                           	global	?_lcd_data
   944  0074                     ?_lcd_data: ;@ 0x4
   945  0074                     	ds	1
   946                           	global	?_lcd_pattern
   947  0075                     ?_lcd_pattern: ;@ 0x5
   948                           	global	??___ftneg
   949  0075                     ??___ftneg: ;@ 0x5
   950  0075                     	ds	3
   951                           	global	??___awtoft
   952  0078                     ??___awtoft: ;@ 0x8
   953  0078                     	ds	2
   954                           	global	??___ftadd
   955  007A                     ??___ftadd: ;@ 0xA
   956  007A                     	ds	3
   957                           psect	cstackBANK0,class=BANK0,space=1
   958                           global __pcstackBANK0
   959  0020                     __pcstackBANK0:
   960                           	global	?___ftpack
   961  0020                     ?___ftpack: ;@ 0x0
   962                           	global	?___almod
   963  0020                     ?___almod: ;@ 0x0
   964                           	global	?___lmul
   965  0020                     ?___lmul: ;@ 0x0
   966                           	global	___aldiv@counter
   967  0020                     ___aldiv@counter:	; 1 bytes @ 0x0
   968                           	global	lcd_pattern@p
   969  0020                     lcd_pattern@p:	; 1 bytes @ 0x0
   970                           	global	___ftpack@arg
   971  0020                     ___ftpack@arg:	; 3 bytes @ 0x0
   972                           	global	___almod@dividend
   973  0020                     ___almod@dividend:	; 4 bytes @ 0x0
   974                           	global	___lmul@multiplier
   975  0020                     ___lmul@multiplier:	; 4 bytes @ 0x0
   976  0020                     	ds	1
   977                           	global	___aldiv@sign
   978  0021                     ___aldiv@sign:	; 1 bytes @ 0x1
   979                           	global	lcd_pattern@i
   980  0021                     lcd_pattern@i:	; 2 bytes @ 0x1
   981  0021                     	ds	1
   982                           	global	___aldiv@quotient
   983  0022                     ___aldiv@quotient:	; 4 bytes @ 0x2
   984  0022                     	ds	1
   985                           	global	___ftpack@exp
   986  0023                     ___ftpack@exp:	; 1 bytes @ 0x3
   987  0023                     	ds	1
   988                           	global	___ftpack@sign
   989  0024                     ___ftpack@sign:	; 1 bytes @ 0x4
   990                           	global	___lmul@multiplicand
   991  0024                     ___lmul@multiplicand:	; 4 bytes @ 0x4
   992                           	global	___almod@divisor
   993  0024                     ___almod@divisor:	; 4 bytes @ 0x4
   994  0024                     	ds	2
   995                           	global	?___aldiv
   996  0026                     ?___aldiv: ;@ 0x6
   997                           	global	___aldiv@dividend
   998  0026                     ___aldiv@dividend:	; 4 bytes @ 0x6
   999  0026                     	ds	1
  1000                           	global	___awtoft@sign
  1001  0027                     ___awtoft@sign:	; 1 bytes @ 0x7
  1002  0027                     	ds	1
  1003                           	global	??_lcd_float
  1004  0028                     ??_lcd_float: ;@ 0x8
  1005                           	global	?___awtoft
  1006  0028                     ?___awtoft: ;@ 0x8
  1007                           	global	___awtoft@c
  1008  0028                     ___awtoft@c:	; 2 bytes @ 0x8
  1009  0028                     	ds	2
  1010                           	global	___aldiv@divisor
  1011  002A                     ___aldiv@divisor:	; 4 bytes @ 0xA
  1012  002A                     	ds	1
  1013                           	global	?___ftneg
  1014  002B                     ?___ftneg: ;@ 0xB
  1015                           	global	___ftneg@f1
  1016  002B                     ___ftneg@f1:	; 3 bytes @ 0xB
  1017  002B                     	ds	3
  1018                           	global	___ftadd@sign
  1019  002E                     ___ftadd@sign:	; 1 bytes @ 0xE
  1020  002E                     	ds	1
  1021                           	global	___ftadd@exp2
  1022  002F                     ___ftadd@exp2:	; 1 bytes @ 0xF
  1023  002F                     	ds	1
  1024                           	global	___ftadd@exp1
  1025  0030                     ___ftadd@exp1:	; 1 bytes @ 0x10
  1026  0030                     	ds	1
  1027                           	global	?___ftadd
  1028  0031                     ?___ftadd: ;@ 0x11
  1029                           	global	___ftadd@f1
  1030  0031                     ___ftadd@f1:	; 3 bytes @ 0x11
  1031  0031                     	ds	3
  1032                           	global	___ftadd@f2
  1033  0034                     ___ftadd@f2:	; 3 bytes @ 0x14
  1034  0034                     	ds	3
  1035                           	global	??___ftmul
  1036  0037                     ??___ftmul: ;@ 0x17
  1037  0037                     	ds	4
  1038                           	global	___ftmul@exp
  1039  003B                     ___ftmul@exp:	; 1 bytes @ 0x1B
  1040  003B                     	ds	1
  1041                           	global	___ftmul@f3_as_product
  1042  003C                     ___ftmul@f3_as_product:	; 3 bytes @ 0x1C
  1043  003C                     	ds	3
  1044                           	global	___ftmul@cntr
  1045  003F                     ___ftmul@cntr:	; 1 bytes @ 0x1F
  1046  003F                     	ds	1
  1047                           	global	___ftmul@sign
  1048  0040                     ___ftmul@sign:	; 1 bytes @ 0x20
  1049  0040                     	ds	1
  1050                           	global	?___ftmul
  1051  0041                     ?___ftmul: ;@ 0x21
  1052                           	global	___ftmul@f1
  1053  0041                     ___ftmul@f1:	; 3 bytes @ 0x21
  1054  0041                     	ds	3
  1055                           	global	___ftmul@f2
  1056  0044                     ___ftmul@f2:	; 3 bytes @ 0x24
  1057  0044                     	ds	3
  1058                           	global	??___fttol
  1059  0047                     ??___fttol: ;@ 0x27
  1060  0047                     	ds	3
  1061                           	global	___fttol@sign1
  1062  004A                     ___fttol@sign1:	; 1 bytes @ 0x2A
  1063  004A                     	ds	1
  1064                           	global	___fttol@lval
  1065  004B                     ___fttol@lval:	; 4 bytes @ 0x2B
  1066  004B                     	ds	4
  1067                           	global	___fttol@exp1
  1068  004F                     ___fttol@exp1:	; 1 bytes @ 0x2F
  1069  004F                     	ds	1
  1070                           	global	??_lcd_integer
  1071  0050                     ??_lcd_integer: ;@ 0x30
  1072  0050                     	ds	1
  1073                           	global	_lcd_float$755
  1074  0051                     _lcd_float$755:	; 3 bytes @ 0x31
  1075  0051                     	ds	3
  1076                           	global	??_main
  1077  0054                     ??_main: ;@ 0x34
  1078  0054                     	ds	4
  1079                           	global	?_main
  1080  0058                     ?_main: ;@ 0x38
  1081                           ;Data sizes: Strings 0, constant 0, data 8, bss 0, persistent 0 stack 0
  1082                           ;Auto spaces:   Size  Autos    Used
  1083                           ; COMMON          14     13      13
  1084                           ; BANK0           80     56      64
  1085                           ; BANK1           80     27      27
  1086                           ; BANK3           96      0       0
  1087                           ; BANK2           96      0       0
  1088                           
  1089                           
  1090                           ;Pointer list with targets:
  1091                           
  1092                           ;lcd_pattern@p	PTR unsigned char  size(1); Largest target is 8
  1093                           ;		 -> main@pattern(BANK1[8]), 
  1094                           ;?___aldiv	long  size(1); Largest target is 0
  1095                           ;?___lmul	unsigned long  size(1); Largest target is 0
  1096                           ;?___almod	long  size(1); Largest target is 0
  1097                           ;?___fttol	long  size(1); Largest target is 0
  1098                           ;?___ftmul	float  size(1); Largest target is 0
  1099                           ;?___awtoft	float  size(1); Largest target is 0
  1100                           ;?___ftadd	float  size(1); Largest target is 0
  1101                           ;?___ftneg	float  size(1); Largest target is 0
  1102                           ;?___ftpack	float  size(1); Largest target is 0
  1103                           
  1104                           
  1105                           ;Main: autosize = 0, tempsize = 4, incstack = 0, save=0
  1106                           
  1107                           
  1108                           ;Call graph:                      Base Space Used Autos Args Refs Density
  1109                           ;_main                                               12    0 35633   0.00
  1110                           ;                                   52 BANK0    4
  1111                           ;                                   19 BANK1    8
  1112                           ;           _lcd_init
  1113                           ;        _lcd_pattern
  1114                           ;          _lcd_float
  1115                           ;        _lcd_command
  1116                           ;           _lcd_data
  1117                           ;  _lcd_pattern                                       4    0  273   0.00
  1118                           ;                                    4 COMMO    1
  1119                           ;                                    0 BANK0    3
  1120                           ;        _lcd_command
  1121                           ;           _lcd_data
  1122                           ;  _lcd_float                                         3    3 34997   0.00
  1123                           ;                                   49 BANK0    3
  1124                           ;                                   16 BANK1    3
  1125                           ;            ___fttol
  1126                           ;        _lcd_integer
  1127                           ;           _lcd_data
  1128                           ;           ___awtoft
  1129                           ;            ___ftneg
  1130                           ;            ___ftadd
  1131                           ;            ___ftmul
  1132                           ;  _lcd_init                                          0    0  168   0.00
  1133                           ;        _lcd_command
  1134                           ;           _lcd_data
  1135                           ;    ___awtoft                                        3    3  516   0.00
  1136                           ;                                    8 COMMO    2
  1137                           ;                                    7 BANK0    4
  1138                           ;            ___fttol (ARG)
  1139                           ;           ___ftpack
  1140                           ;    ___ftneg                                         0    3  843   0.00
  1141                           ;                                   11 BANK0    3
  1142                           ;           ___awtoft (ARG)
  1143                           ;            ___fttol (ARG)
  1144                           ;    ___ftmul                                        10    6 4476   0.00
  1145                           ;                                   23 BANK0   16
  1146                           ;            ___ftadd (ARG)
  1147                           ;            ___ftneg (ARG)
  1148                           ;           ___awtoft (ARG)
  1149                           ;            ___fttol (ARG)
  1150                           ;           ___ftpack
  1151                           ;    ___ftadd                                         6    6 2426   0.00
  1152                           ;                                   10 COMMO    3
  1153                           ;                                   14 BANK0    9
  1154                           ;            ___ftneg (ARG)
  1155                           ;           ___awtoft (ARG)
  1156                           ;            ___fttol (ARG)
  1157                           ;           ___ftpack
  1158                           ;    _lcd_integer                                     9    4 17980   0.00
  1159                           ;                                   48 BANK0    1
  1160                           ;                                    4 BANK1   12
  1161                           ;            ___aldiv
  1162                           ;             ___lmul
  1163                           ;           _lcd_data
  1164                           ;            ___almod
  1165                           ;            ___fttol (ARG)
  1166                           ;            ___ftmul (ARG)
  1167                           ;            ___ftadd (ARG)
  1168                           ;            ___ftneg (ARG)
  1169                           ;           ___awtoft (ARG)
  1170                           ;    ___fttol                                         9    4 8555   0.00
  1171                           ;                                   39 BANK0    9
  1172                           ;                                    0 BANK1    4
  1173                           ;            ___ftmul (ARG)
  1174                           ;            ___ftadd (ARG)
  1175                           ;            ___ftneg (ARG)
  1176                           ;           ___awtoft (ARG)
  1177                           ;    _lcd_command                                     4    0   66   0.00
  1178                           ;                                    0 COMMO    4
  1179                           ;      _lcd_data                                      4    0  102   0.00
  1180                           ;                                    0 COMMO    4
  1181                           ;      ___aldiv                                       7    8  354   0.00
  1182                           ;                                    0 COMMO    1
  1183                           ;                                    0 BANK0   14
  1184                           ;      ___lmul                                        5    8  108   0.00
  1185                           ;                                    0 COMMO    5
  1186                           ;                                    0 BANK0    8
  1187                           ;      ___almod                                       3    8  342   0.00
  1188                           ;                                    0 COMMO    3
  1189                           ;                                    0 BANK0    8
  1190                           ;      ___ftpack                                      3    5  155   0.00
  1191                           ;                                    0 COMMO    3
  1192                           ;                                    0 BANK0    5
  1193                           ; Estimated maximum call depth 3
  1194                           ; Address spaces:
  1195                           
  1196                           ;Name               Size   Autos  Total    Cost      Usage
  1197                           ;BITCOMMON            E      0       0       0        0.0%
  1198                           ;CODE                 0      0       0       0        0.0%
  1199                           ;NULL                 0      0       0       0        0.0%
  1200                           ;COMMON               E      D       D       1       92.9%
  1201                           ;SFR0                 0      0       0       1        0.0%
  1202                           ;BITSFR0              0      0       0       1        0.0%
  1203                           ;BITSFR1              0      0       0       2        0.0%
  1204                           ;SFR1                 0      0       0       2        0.0%
  1205                           ;ABS                  0      0      68       2        0.0%
  1206                           ;STACK                0      0       0       3        0.0%
  1207                           ;BITBANK0            50      0       0       4        0.0%
  1208                           ;SFR3                 0      0       0       4        0.0%
  1209                           ;BITSFR3              0      0       0       4        0.0%
  1210                           ;BANK0               50     38      40       5       80.0%
  1211                           ;BITSFR2              0      0       0       5        0.0%
  1212                           ;SFR2                 0      0       0       5        0.0%
  1213                           ;BITBANK1            50      0       0       6        0.0%
  1214                           ;BANK1               50     1B      1B       7       33.8%
  1215                           ;BITBANK3            60      0       0       8        0.0%
  1216                           ;BANK3               60      0       0       9        0.0%
  1217                           ;BITBANK2            60      0       0      10        0.0%
  1218                           ;BANK2               60      0       0      11        0.0%
  1219                           ;DATA                 0      0      68      12        0.0%
  1220                           ;EEDATA             100      0       0    1000        0.0%
  1221                           
  1222                           	global	_main
  1223                           psect	maintext,local,class=CODE,delta=2
  1224                           global __pmaintext
  1225  004A                     __pmaintext:
  1226                           
  1227                           ; *************** function _main *****************
  1228                           ; Defined at:
  1229                           ;		line 93 in file "C:\Users\Jarvis\Desktop\PIC16f877a_coding\LCD_interfacing_4_bit\lcd.
                                 c"
  1230                           ; Parameters:    Size  Location     Type
  1231                           ;		None
  1232                           ; Auto vars:     Size  Location     Type
  1233                           ;  pattern         8   19[BANK1 ] unsigned char [8]
  1234                           ; Return value:  Size  Location     Type
  1235                           ;                  2   56[BANK0 ] int 
  1236                           ; Registers used:
  1237                           ;		wreg, fsr0l, fsr0h, status,2, status,0, pclath, cstack
  1238                           ; Tracked objects:
  1239                           ;		On entry : 17F/0
  1240                           ;		On exit  : 0/0
  1241                           ;		Unchanged: 0/0
  1242                           ; Data sizes:     COMMON   BANK0   BANK1   BANK3   BANK2
  1243                           ;      Locals:         0       4       8       0       0
  1244                           ;      Temp:     4
  1245                           ;      Total:   12
  1246                           ; This function calls:
  1247                           ;		_lcd_init
  1248                           ;		_lcd_pattern
  1249                           ;		_lcd_float
  1250                           ;		_lcd_command
  1251                           ;		_lcd_data
  1252                           ; This function is called by:
  1253                           ;		Startup code after reset
  1254                           ; This function uses a non-reentrant model
  1255                           ; 
  1256                           psect	maintext
  1257                           	file	"C:\Users\Jarvis\Desktop\PIC16f877a_coding\LCD_interfacing_4_bit\lcd.c"
  1258                           	line	93
  1259                           	global	__size_of_main
  1260  0049                     	__size_of_main	equ	__end_of_main-_main
  1261                           ;lcd.c: 92: int main()
  1262                           ;lcd.c: 93: {
  1263                           	
  1264  004A                     _main:	
  1265                           	opt stack 8
  1266                           ; Regs used in _main: [wreg-fsr0h+status,2+status,0+pclath+cstack]
  1267                           	line	94
  1268                           	
  1269  004A                     l30000916:	
  1270                           ;lcd.c: 94: unsigned char pattern[]={0x1f,0x10,0x1f,0x10,0x1f,0x1f,0x1f,0x1f};
  1271  004A  30B3               	movlw	(main@pattern)&0ffh
  1272  004B  0084               	movwf	fsr0
  1273  004C  3058               	movlw	main@F530&0ffh
  1274  004D  00D4               	movwf	(??_main+0+0)
  1275  004E  0804               	movf	fsr0,w
  1276  004F  00D5               	movwf	(??_main+0+0+1)
  1277  0050  3008               	movlw	8
  1278  0051  00D6               	movwf	(??_main+0+0+2)
  1279  0052                     u2090:
  1280  0052  0854               	movf	(??_main+0+0),w
  1281  0053  0084               	movwf	fsr0
  1282  0054  1383               	bcf	status, 7	;select IRP bank0
  1283                           	
  1284  0055  0800               	movf	indf,w
  1285  0056  00D7               	movwf	(??_main+0+0+3)
  1286  0057  0AD4               	incf	(??_main+0+0),f
  1287  0058  0855               	movf	(??_main+0+0+1),w
  1288  0059  0084               	movwf	fsr0
  1289  005A  0857               	movf	(??_main+0+0+3),w
  1290  005B  0080               	movwf	indf
  1291  005C  0AD5               	incf	(??_main+0+0+1),f
  1292  005D  0BD6               	decfsz	(??_main+0+0+2),f
  1293  005E  2852               	goto	u2090
  1294                           	
  1295  005F                     l30000917:	
  1296                           	line	96
  1297                           ;lcd.c: 96: lcd_init();
  1298  005F  120A  158A  2763   	fcall	_lcd_init
              120A  118A         
  1299                           	
  1300  0064                     l30000918:	
  1301                           	line	97
  1302                           ;lcd.c: 97: lcd_pattern(pattern);
  1303  0064  30B3               	movlw	((main@pattern))&0ffh
  1304  0065  120A  118A  2019   	fcall	_lcd_pattern
              120A  118A         
  1305                           	
  1306  006A                     l30000919:	
  1307                           	line	98
  1308                           ;lcd.c: 98: lcd_float(123.459);
  1309  006A  30EB               	movlw	0xeb
  1310  006B  1683               	bsf	status, 5	;RP0=1, select bank1
  1311  006C  1303               	bcf	status, 6	;RP1=0, select bank1
  1312  006D  00B0               	movwf	(?_lcd_float)^080h
  1313  006E  30F6               	movlw	0xf6
  1314  006F  00B1               	movwf	(?_lcd_float+1)^080h
  1315  0070  3042               	movlw	0x42
  1316  0071  00B2               	movwf	(?_lcd_float+2)^080h
  1317  0072  120A  118A  22D9   	fcall	_lcd_float
              120A  118A         
  1318                           	
  1319  0077                     l30000920:	
  1320                           	line	100
  1321                           ;lcd.c: 100: lcd_command(0x80);
  1322  0077  3080               	movlw	(080h)
  1323  0078  120A  118A  20E2   	fcall	_lcd_command
              120A  118A         
  1324                           	
  1325  007D                     l30000921:	
  1326                           	line	101
  1327                           ;lcd.c: 101: lcd_data(0);
  1328  007D  3000               	movlw	(0)
  1329  007E  120A  118A  2093   	fcall	_lcd_data
              120A  118A         
  1330                           	
  1331  0083                     l30000922:	
  1332                           	line	102
  1333                           ;lcd.c: 102: lcd_data(0);
  1334  0083  3000               	movlw	(0)
  1335  0084  120A  118A  2093   	fcall	_lcd_data
              120A  118A         
  1336                           	
  1337  0089                     l30000923:	
  1338                           	line	103
  1339                           ;lcd.c: 103: lcd_data('B');
  1340  0089  3042               	movlw	(042h)
  1341  008A  120A  118A  2093   	fcall	_lcd_data
              120A  118A         
  1342                           	
  1343  008F                     l33:	
  1344  008F  288F               	goto	l33
  1345                           	global	start
  1346  0090  120A  118A  2800   	ljmp	start
  1347                           	opt stack 0
  1348                           GLOBAL	__end_of_main
  1349  0093                     	__end_of_main:
  1350                           ; =============== function _main ends ============
  1351                           
  1352                           psect	maintext
  1353                           	line	110
  1354                           	signat	_main,90
  1355                           	global	_lcd_pattern
  1356                           psect	text135,local,class=CODE,delta=2
  1357                           global __ptext135
  1358  0019                     __ptext135:
  1359                           
  1360                           ; *************** function _lcd_pattern *****************
  1361                           ; Defined at:
  1362                           ;		line 84 in file "C:\Users\Jarvis\Desktop\PIC16f877a_coding\LCD_interfacing_4_bit\lcd.
                                 c"
  1363                           ; Parameters:    Size  Location     Type
  1364                           ;  p               1    wreg     PTR unsigned char 
  1365                           ;		 -> main@pattern(8), 
  1366                           ; Auto vars:     Size  Location     Type
  1367                           ;  p               1    0[BANK0 ] PTR unsigned char 
  1368                           ;		 -> main@pattern(8), 
  1369                           ;  i               2    1[BANK0 ] int 
  1370                           ; Return value:  Size  Location     Type
  1371                           ;		None               void
  1372                           ; Registers used:
  1373                           ;		wreg, fsr0l, fsr0h, status,2, status,0, pclath, cstack
  1374                           ; Tracked objects:
  1375                           ;		On entry : 0/0
  1376                           ;		On exit  : 0/0
  1377                           ;		Unchanged: 0/0
  1378                           ; Data sizes:     COMMON   BANK0   BANK1   BANK3   BANK2
  1379                           ;      Locals:         1       3       0       0       0
  1380                           ;      Temp:     1
  1381                           ;      Total:    4
  1382                           ; This function calls:
  1383                           ;		_lcd_command
  1384                           ;		_lcd_data
  1385                           ; This function is called by:
  1386                           ;		_main
  1387                           ; This function uses a non-reentrant model
  1388                           ; 
  1389                           psect	text135
  1390                           	file	"C:\Users\Jarvis\Desktop\PIC16f877a_coding\LCD_interfacing_4_bit\lcd.c"
  1391                           	line	84
  1392                           	global	__size_of_lcd_pattern
  1393  0031                     	__size_of_lcd_pattern	equ	__end_of_lcd_pattern-_lcd_pattern
  1394                           ;lcd.c: 83: void lcd_pattern(unsigned char *p)
  1395                           ;lcd.c: 84: {int i=0;
  1396                           	
  1397  0019                     _lcd_pattern:	
  1398                           	opt stack 7
  1399                           ; Regs used in _lcd_pattern: [wreg-fsr0h+status,2+status,0+pclath+cstack]
  1400                           ;lcd_pattern@p stored from wreg
  1401  0019  1283               	bcf	status, 5	;RP0=0, select bank0
  1402  001A  1303               	bcf	status, 6	;RP1=0, select bank0
  1403  001B  00A0               	movwf	(lcd_pattern@p)
  1404                           	
  1405  001C                     l30000949:	
  1406                           	
  1407  001C                     l30000950:	
  1408                           	line	85
  1409                           ;lcd.c: 85: lcd_command(0x40);
  1410  001C  3040               	movlw	(040h)
  1411  001D  120A  118A  20E2   	fcall	_lcd_command
              120A  118A         
  1412                           	
  1413  0022                     l30000951:	
  1414                           	line	86
  1415                           ;lcd.c: 86: for(i=0;i<8;i++)
  1416  0022  3000               	movlw	low(0)
  1417  0023  1283               	bcf	status, 5	;RP0=0, select bank0
  1418  0024  1303               	bcf	status, 6	;RP1=0, select bank0
  1419  0025  00A1               	movwf	(lcd_pattern@i)
  1420  0026  3000               	movlw	high(0)
  1421  0027  00A2               	movwf	((lcd_pattern@i))+1
  1422                           	
  1423  0028                     l30000954:	
  1424                           	line	88
  1425                           ;lcd.c: 87: {
  1426                           ;lcd.c: 88: lcd_data(*(p+i));
  1427  0028  1283               	bcf	status, 5	;RP0=0, select bank0
  1428  0029  1303               	bcf	status, 6	;RP1=0, select bank0
  1429  002A  0821               	movf	(lcd_pattern@i),w
  1430  002B  0720               	addwf	(lcd_pattern@p),w
  1431  002C  0084               	movwf	fsr0
  1432  002D  1383               	bcf	status, 7	;select IRP bank0
  1433  002E  0800               	movf	indf,w
  1434  002F  120A  118A  2093   	fcall	_lcd_data
              120A  118A         
  1435                           	
  1436  0034                     l30000955:	
  1437                           	line	86
  1438  0034  3001               	movlw	low(01h)
  1439  0035  1283               	bcf	status, 5	;RP0=0, select bank0
  1440  0036  1303               	bcf	status, 6	;RP1=0, select bank0
  1441  0037  07A1               	addwf	(lcd_pattern@i),f
  1442  0038  1803               	skipnc
  1443  0039  0AA2               	incf	(lcd_pattern@i+1),f
  1444  003A  3000               	movlw	high(01h)
  1445  003B  07A2               	addwf	(lcd_pattern@i+1),f
  1446                           	
  1447  003C                     l30000956:	
  1448  003C  0822               	movf	(lcd_pattern@i+1),w
  1449  003D  3A80               	xorlw	80h
  1450  003E  00F4               	movwf	(??_lcd_pattern+0+0)
  1451  003F  3080               	movlw	(high(08h))^80h
  1452  0040  0274               	subwf	(??_lcd_pattern+0+0),w
  1453  0041  1D03               	skipz
  1454  0042  2845               	goto	u2155
  1455  0043  3008               	movlw	low(08h)
  1456  0044  0221               	subwf	(lcd_pattern@i),w
  1457  0045                     u2155:
  1458                           
  1459  0045  1C03               	skipc
  1460  0046  2848               	goto	u2151
  1461  0047  2849               	goto	u2150
  1462  0048                     u2151:
  1463  0048  2828               	goto	l30000954
  1464  0049                     u2150:
  1465                           	
  1466  0049                     l28:	
  1467  0049  0008               	return
  1468                           	opt stack 0
  1469                           GLOBAL	__end_of_lcd_pattern
  1470  004A                     	__end_of_lcd_pattern:
  1471                           ; =============== function _lcd_pattern ends ============
  1472                           
  1473                           psect	text136,local,class=CODE,delta=2
  1474                           global __ptext136
  1475  02D9                     __ptext136:
  1476                           	line	90
  1477                           	signat	_lcd_pattern,4216
  1478                           	global	_lcd_float
  1479                           
  1480                           ; *************** function _lcd_float *****************
  1481                           ; Defined at:
  1482                           ;		line 76 in file "C:\Users\Jarvis\Desktop\PIC16f877a_coding\LCD_interfacing_4_bit\lcd.
                                 c"
  1483                           ; Parameters:    Size  Location     Type
  1484                           ;  f               3   16[BANK1 ] int 
  1485                           ; Auto vars:     Size  Location     Type
  1486                           ;		None
  1487                           ; Return value:  Size  Location     Type
  1488                           ;		None               void
  1489                           ; Registers used:
  1490                           ;		wreg, status,2, status,0, pclath, cstack
  1491                           ; Tracked objects:
  1492                           ;		On entry : 0/0
  1493                           ;		On exit  : 0/0
  1494                           ;		Unchanged: 0/0
  1495                           ; Data sizes:     COMMON   BANK0   BANK1   BANK3   BANK2
  1496                           ;      Locals:         0       3       3       0       0
  1497                           ;      Temp:     0
  1498                           ;      Total:    6
  1499                           ; This function calls:
  1500                           ;		___fttol
  1501                           ;		_lcd_integer
  1502                           ;		_lcd_data
  1503                           ;		___awtoft
  1504                           ;		___ftneg
  1505                           ;		___ftadd
  1506                           ;		___ftmul
  1507                           ; This function is called by:
  1508                           ;		_main
  1509                           ; This function uses a non-reentrant model
  1510                           ; 
  1511                           psect	text136
  1512                           	file	"C:\Users\Jarvis\Desktop\PIC16f877a_coding\LCD_interfacing_4_bit\lcd.c"
  1513                           	line	76
  1514                           	global	__size_of_lcd_float
  1515  00B6                     	__size_of_lcd_float	equ	__end_of_lcd_float-_lcd_float
  1516                           ;lcd.c: 75: void lcd_float(double f)
  1517                           ;lcd.c: 76: {
  1518                           	
  1519  02D9                     _lcd_float:	
  1520                           	opt stack 7
  1521                           ; Regs used in _lcd_float: [wreg+status,2+status,0+pclath+cstack]
  1522                           	line	77
  1523                           	
  1524  02D9                     l30000915:	
  1525                           ;lcd.c: 77: lcd_integer((int)f);
  1526  02D9  1683               	bsf	status, 5	;RP0=1, select bank1
  1527  02DA  1303               	bcf	status, 6	;RP1=0, select bank1
  1528  02DB  0830               	movf	(lcd_float@f)^080h,w
  1529  02DC  00A0               	movwf	(?___fttol)^080h
  1530  02DD  0831               	movf	(lcd_float@f+1)^080h,w
  1531  02DE  00A1               	movwf	(?___fttol+1)^080h
  1532  02DF  0832               	movf	(lcd_float@f+2)^080h,w
  1533  02E0  00A2               	movwf	(?___fttol+2)^080h
  1534  02E1  120A  118A  238F   	fcall	___fttol
              120A  118A         
  1535  02E6  1383               	bcf	status, 7	;select IRP bank1
  1536  02E7  1683               	bsf	status, 5	;RP0=1, select bank1
  1537  02E8  1303               	bcf	status, 6	;RP1=0, select bank1
  1538  02E9  0820               	movf	(0+(?___fttol))^080h,w
  1539  02EA  00AC               	movwf	(?_lcd_integer)^080h
  1540  02EB  0821               	movf	(1+(?___fttol))^080h,w
  1541  02EC  00AD               	movwf	(?_lcd_integer+1)^080h
  1542  02ED  3000               	movlw	0
  1543  02EE  1BAD               	btfsc	(?_lcd_integer+1)^080h,7
  1544  02EF  30FF               	movlw	255
  1545  02F0  00AE               	movwf	(?_lcd_integer+2)^080h
  1546  02F1  00AF               	movwf	(?_lcd_integer+3)^080h
  1547  02F2  120A  118A  2670   	fcall	_lcd_integer
              120A  118A         
  1548                           	line	78
  1549                           ;lcd.c: 78: lcd_data('.');
  1550  02F7  302E               	movlw	(02Eh)
  1551  02F8  120A  118A  2093   	fcall	_lcd_data
              120A  118A         
  1552                           	file	"C:\Program Files (x86)\HI-TECH Software\PICC\9.70\sources\lmul.c"
  1553                           	line	13
  1554  02FD  1683               	bsf	status, 5	;RP0=1, select bank1
  1555  02FE  1303               	bcf	status, 6	;RP1=0, select bank1
  1556  02FF  0830               	movf	(lcd_float@f)^080h,w
  1557  0300  00A0               	movwf	(?___fttol)^080h
  1558  0301  0831               	movf	(lcd_float@f+1)^080h,w
  1559  0302  00A1               	movwf	(?___fttol+1)^080h
  1560  0303  0832               	movf	(lcd_float@f+2)^080h,w
  1561  0304  00A2               	movwf	(?___fttol+2)^080h
  1562  0305  120A  118A  238F   	fcall	___fttol
              120A  118A         
  1563  030A  1383               	bcf	status, 7	;select IRP bank1
  1564  030B  1683               	bsf	status, 5	;RP0=1, select bank1
  1565  030C  1303               	bcf	status, 6	;RP1=0, select bank1
  1566  030D  0821               	movf	(1+(?___fttol))^080h,w
  1567  030E  1283               	bcf	status, 5	;RP0=0, select bank0
  1568  030F  1303               	bcf	status, 6	;RP1=0, select bank0
  1569  0310  01A9               	clrf	(?___awtoft+1)
  1570  0311  07A9               	addwf	(?___awtoft+1)
  1571  0312  1683               	bsf	status, 5	;RP0=1, select bank1
  1572  0313  1303               	bcf	status, 6	;RP1=0, select bank1
  1573  0314  0820               	movf	(0+(?___fttol))^080h,w
  1574  0315  1283               	bcf	status, 5	;RP0=0, select bank0
  1575  0316  1303               	bcf	status, 6	;RP1=0, select bank0
  1576  0317  01A8               	clrf	(?___awtoft)
  1577  0318  07A8               	addwf	(?___awtoft)
  1578                           
  1579  0319  120A  158A  2789   	fcall	___awtoft
              120A  118A         
  1580  031E  1383               	bcf	status, 7	;select IRP bank0
  1581  031F  1283               	bcf	status, 5	;RP0=0, select bank0
  1582  0320  1303               	bcf	status, 6	;RP1=0, select bank0
  1583  0321  0828               	movf	(0+(?___awtoft)),w
  1584  0322  00AB               	movwf	(?___ftneg)
  1585  0323  0829               	movf	(1+(?___awtoft)),w
  1586  0324  00AC               	movwf	(?___ftneg+1)
  1587  0325  082A               	movf	(2+(?___awtoft)),w
  1588  0326  00AD               	movwf	(?___ftneg+2)
  1589  0327  120A  158A  2751   	fcall	___ftneg
              120A  118A         
  1590  032C  1383               	bcf	status, 7	;select IRP bank0
  1591  032D  1283               	bcf	status, 5	;RP0=0, select bank0
  1592  032E  1303               	bcf	status, 6	;RP1=0, select bank0
  1593  032F  082B               	movf	(0+(?___ftneg)),w
  1594  0330  00B1               	movwf	(?___ftadd)
  1595  0331  082C               	movf	(1+(?___ftneg)),w
  1596  0332  00B2               	movwf	(?___ftadd+1)
  1597  0333  082D               	movf	(2+(?___ftneg)),w
  1598  0334  00B3               	movwf	(?___ftadd+2)
  1599  0335  1683               	bsf	status, 5	;RP0=1, select bank1
  1600  0336  1303               	bcf	status, 6	;RP1=0, select bank1
  1601  0337  0830               	movf	(lcd_float@f)^080h,w
  1602  0338  1283               	bcf	status, 5	;RP0=0, select bank0
  1603  0339  1303               	bcf	status, 6	;RP1=0, select bank0
  1604  033A  00B4               	movwf	0+(?___ftadd)+03h
  1605  033B  1683               	bsf	status, 5	;RP0=1, select bank1
  1606  033C  1303               	bcf	status, 6	;RP1=0, select bank1
  1607  033D  0831               	movf	(lcd_float@f+1)^080h,w
  1608  033E  1283               	bcf	status, 5	;RP0=0, select bank0
  1609  033F  1303               	bcf	status, 6	;RP1=0, select bank0
  1610  0340  00B5               	movwf	1+(?___ftadd)+03h
  1611  0341  1683               	bsf	status, 5	;RP0=1, select bank1
  1612  0342  1303               	bcf	status, 6	;RP1=0, select bank1
  1613  0343  0832               	movf	(lcd_float@f+2)^080h,w
  1614  0344  1283               	bcf	status, 5	;RP0=0, select bank0
  1615  0345  1303               	bcf	status, 6	;RP1=0, select bank0
  1616  0346  00B6               	movwf	2+(?___ftadd)+03h
  1617  0347  120A  118A  2524   	fcall	___ftadd
              120A  118A         
  1618  034C  1383               	bcf	status, 7	;select IRP bank0
  1619  034D  1283               	bcf	status, 5	;RP0=0, select bank0
  1620  034E  1303               	bcf	status, 6	;RP1=0, select bank0
  1621  034F  0831               	movf	(0+(?___ftadd)),w
  1622  0350  00C1               	movwf	(?___ftmul)
  1623  0351  0832               	movf	(1+(?___ftadd)),w
  1624  0352  00C2               	movwf	(?___ftmul+1)
  1625  0353  0833               	movf	(2+(?___ftadd)),w
  1626  0354  00C3               	movwf	(?___ftmul+2)
  1627  0355  3000               	movlw	0x0
  1628  0356  00C4               	movwf	0+(?___ftmul)+03h
  1629  0357  307A               	movlw	0x7a
  1630  0358  00C5               	movwf	1+(?___ftmul)+03h
  1631  0359  3044               	movlw	0x44
  1632  035A  00C6               	movwf	2+(?___ftmul)+03h
  1633  035B  120A  118A  2448   	fcall	___ftmul
              120A  118A         
  1634  0360  1383               	bcf	status, 7	;select IRP bank0
  1635  0361  1283               	bcf	status, 5	;RP0=0, select bank0
  1636  0362  1303               	bcf	status, 6	;RP1=0, select bank0
  1637  0363  0841               	movf	(0+(?___ftmul)),w
  1638  0364  00D1               	movwf	(_lcd_float$755)
  1639  0365  0842               	movf	(1+(?___ftmul)),w
  1640  0366  00D2               	movwf	(_lcd_float$755+1)
  1641  0367  0843               	movf	(2+(?___ftmul)),w
  1642  0368  00D3               	movwf	(_lcd_float$755+2)
  1643                           	file	"C:\Users\Jarvis\Desktop\PIC16f877a_coding\LCD_interfacing_4_bit\lcd.c"
  1644                           	line	79
  1645                           ;lcd.c: 79: lcd_integer((f - (int) f) *1000 );
  1646  0369  0851               	movf	(_lcd_float$755),w
  1647  036A  1683               	bsf	status, 5	;RP0=1, select bank1
  1648  036B  1303               	bcf	status, 6	;RP1=0, select bank1
  1649  036C  00A0               	movwf	(?___fttol)^080h
  1650  036D  1283               	bcf	status, 5	;RP0=0, select bank0
  1651  036E  1303               	bcf	status, 6	;RP1=0, select bank0
  1652  036F  0852               	movf	(_lcd_float$755+1),w
  1653  0370  1683               	bsf	status, 5	;RP0=1, select bank1
  1654  0371  1303               	bcf	status, 6	;RP1=0, select bank1
  1655  0372  00A1               	movwf	(?___fttol+1)^080h
  1656  0373  1283               	bcf	status, 5	;RP0=0, select bank0
  1657  0374  1303               	bcf	status, 6	;RP1=0, select bank0
  1658  0375  0853               	movf	(_lcd_float$755+2),w
  1659  0376  1683               	bsf	status, 5	;RP0=1, select bank1
  1660  0377  1303               	bcf	status, 6	;RP1=0, select bank1
  1661  0378  00A2               	movwf	(?___fttol+2)^080h
  1662  0379  120A  118A  238F   	fcall	___fttol
              120A  118A         
  1663  037E  1383               	bcf	status, 7	;select IRP bank1
  1664  037F  1683               	bsf	status, 5	;RP0=1, select bank1
  1665  0380  1303               	bcf	status, 6	;RP1=0, select bank1
  1666  0381  0823               	movf	(3+(?___fttol))^080h,w
  1667  0382  00AF               	movwf	(?_lcd_integer+3)^080h
  1668  0383  0822               	movf	(2+(?___fttol))^080h,w
  1669  0384  00AE               	movwf	(?_lcd_integer+2)^080h
  1670  0385  0821               	movf	(1+(?___fttol))^080h,w
  1671  0386  00AD               	movwf	(?_lcd_integer+1)^080h
  1672  0387  0820               	movf	(0+(?___fttol))^080h,w
  1673  0388  00AC               	movwf	(?_lcd_integer)^080h
  1674                           
  1675  0389  120A  118A  2670   	fcall	_lcd_integer
              120A  118A         
  1676                           	
  1677  038E                     l27:	
  1678  038E  0008               	return
  1679                           	opt stack 0
  1680                           GLOBAL	__end_of_lcd_float
  1681  038F                     	__end_of_lcd_float:
  1682                           ; =============== function _lcd_float ends ============
  1683                           
  1684                           psect	text137,local,class=CODE,delta=2
  1685                           global __ptext137
  1686  0F63                     __ptext137:
  1687                           	line	81
  1688                           	signat	_lcd_float,4216
  1689                           	global	_lcd_init
  1690                           
  1691                           ; *************** function _lcd_init *****************
  1692                           ; Defined at:
  1693                           ;		line 43 in file "C:\Users\Jarvis\Desktop\PIC16f877a_coding\LCD_interfacing_4_bit\lcd.
                                 c"
  1694                           ; Parameters:    Size  Location     Type
  1695                           ;		None
  1696                           ; Auto vars:     Size  Location     Type
  1697                           ;		None
  1698                           ; Return value:  Size  Location     Type
  1699                           ;		None               void
  1700                           ; Registers used:
  1701                           ;		wreg, status,2, status,0, pclath, cstack
  1702                           ; Tracked objects:
  1703                           ;		On entry : 0/0
  1704                           ;		On exit  : 0/0
  1705                           ;		Unchanged: 0/0
  1706                           ; Data sizes:     COMMON   BANK0   BANK1   BANK3   BANK2
  1707                           ;      Locals:         0       0       0       0       0
  1708                           ;      Temp:     0
  1709                           ;      Total:    0
  1710                           ; This function calls:
  1711                           ;		_lcd_command
  1712                           ;		_lcd_data
  1713                           ; This function is called by:
  1714                           ;		_main
  1715                           ; This function uses a non-reentrant model
  1716                           ; 
  1717                           psect	text137
  1718                           	file	"C:\Users\Jarvis\Desktop\PIC16f877a_coding\LCD_interfacing_4_bit\lcd.c"
  1719                           	line	43
  1720                           	global	__size_of_lcd_init
  1721  0026                     	__size_of_lcd_init	equ	__end_of_lcd_init-_lcd_init
  1722                           ;lcd.c: 42: void lcd_init()
  1723                           ;lcd.c: 43: {
  1724                           	
  1725  0F63                     _lcd_init:	
  1726                           	opt stack 7
  1727                           ; Regs used in _lcd_init: [wreg+status,2+status,0+pclath+cstack]
  1728                           	line	44
  1729                           	
  1730  0F63                     l30000943:	
  1731                           ;lcd.c: 44: TRISD=0x00;
  1732  0F63  1003               	clrc
  1733  0F64  3000               	movlw	0
  1734  0F65  1803               	btfsc	status,0
  1735  0F66  3001               	movlw	1
  1736  0F67  1683               	bsf	status, 5	;RP0=1, select bank1
  1737  0F68  1303               	bcf	status, 6	;RP1=0, select bank1
  1738  0F69  0088               	movwf	(136)^080h	;volatile
  1739                           	
  1740  0F6A                     l30000944:	
  1741                           	line	45
  1742                           ;lcd.c: 45: lcd_command(0x02);
  1743  0F6A  3002               	movlw	(02h)
  1744  0F6B  120A  118A  20E2   	fcall	_lcd_command
              120A  158A         
  1745                           	
  1746  0F70                     l30000945:	
  1747                           	line	46
  1748                           ;lcd.c: 46: lcd_command(0x28);
  1749  0F70  3028               	movlw	(028h)
  1750  0F71  120A  118A  20E2   	fcall	_lcd_command
              120A  158A         
  1751                           	
  1752  0F76                     l30000946:	
  1753                           	line	47
  1754                           ;lcd.c: 47: lcd_command(0x06);
  1755  0F76  3006               	movlw	(06h)
  1756  0F77  120A  118A  20E2   	fcall	_lcd_command
              120A  158A         
  1757                           	
  1758  0F7C                     l30000947:	
  1759                           	line	48
  1760                           ;lcd.c: 48: lcd_command(0x0c);
  1761  0F7C  300C               	movlw	(0Ch)
  1762  0F7D  120A  118A  20E2   	fcall	_lcd_command
              120A  158A         
  1763                           	
  1764  0F82                     l30000948:	
  1765                           	line	49
  1766                           ;lcd.c: 49: lcd_data('A');
  1767  0F82  3041               	movlw	(041h)
  1768  0F83  120A  118A  2093   	fcall	_lcd_data
              120A  158A         
  1769                           	
  1770  0F88                     l15:	
  1771  0F88  0008               	return
  1772                           	opt stack 0
  1773                           GLOBAL	__end_of_lcd_init
  1774  0F89                     	__end_of_lcd_init:
  1775                           ; =============== function _lcd_init ends ============
  1776                           
  1777                           psect	text138,local,class=CODE,delta=2
  1778                           global __ptext138
  1779  0F89                     __ptext138:
  1780                           	line	50
  1781                           	signat	_lcd_init,88
  1782                           	global	___awtoft
  1783                           
  1784                           ; *************** function ___awtoft *****************
  1785                           ; Defined at:
  1786                           ;		line 33 in file "C:\Program Files (x86)\HI-TECH Software\PICC\9.70\sources\awtoft.c"
  1787                           ; Parameters:    Size  Location     Type
  1788                           ;  c               2    8[BANK0 ] int 
  1789                           ; Auto vars:     Size  Location     Type
  1790                           ;  sign            1    7[BANK0 ] unsigned char 
  1791                           ; Return value:  Size  Location     Type
  1792                           ;                  3    8[BANK0 ] float 
  1793                           ; Registers used:
  1794                           ;		wreg, status,2, status,0, pclath, cstack
  1795                           ; Tracked objects:
  1796                           ;		On entry : 0/0
  1797                           ;		On exit  : 0/0
  1798                           ;		Unchanged: 0/0
  1799                           ; Data sizes:     COMMON   BANK0   BANK1   BANK3   BANK2
  1800                           ;      Locals:         2       4       0       0       0
  1801                           ;      Temp:     2
  1802                           ;      Total:    6
  1803                           ; This function calls:
  1804                           ;		___ftpack
  1805                           ; This function is called by:
  1806                           ;		_lcd_float
  1807                           ; This function uses a non-reentrant model
  1808                           ; 
  1809                           psect	text138
  1810                           	file	"C:\Program Files (x86)\HI-TECH Software\PICC\9.70\sources\awtoft.c"
  1811                           	line	33
  1812                           	global	__size_of___awtoft
  1813  002F                     	__size_of___awtoft	equ	__end_of___awtoft-___awtoft
  1814                           	
  1815  0F89                     ___awtoft:	
  1816                           	opt stack 6
  1817                           ; Regs used in ___awtoft: [wreg+status,2+status,0+pclath+cstack]
  1818                           	line	36
  1819                           	
  1820  0F89                     l30000786:	
  1821  0F89  1003               	clrc
  1822  0F8A  3000               	movlw	0
  1823  0F8B  1803               	btfsc	status,0
  1824  0F8C  3001               	movlw	1
  1825  0F8D  1283               	bcf	status, 5	;RP0=0, select bank0
  1826  0F8E  1303               	bcf	status, 6	;RP1=0, select bank0
  1827  0F8F  00A7               	movwf	(___awtoft@sign)
  1828                           	
  1829  0F90                     l30000787:	
  1830                           	line	37
  1831  0F90  1FA9               	btfss	(___awtoft@c+1),7
  1832  0F91  2F93               	goto	u1661
  1833  0F92  2F94               	goto	u1660
  1834  0F93                     u1661:
  1835  0F93  2F9C               	goto	l30000789
  1836  0F94                     u1660:
  1837                           	
  1838  0F94                     l30000788:	
  1839                           	line	38
  1840  0F94  09A8               	comf	(___awtoft@c),f
  1841  0F95  09A9               	comf	(___awtoft@c+1),f
  1842  0F96  0AA8               	incf	(___awtoft@c),f
  1843  0F97  1903               	skipnz
  1844  0F98  0AA9               	incf	(___awtoft@c+1),f
  1845                           	line	39
  1846  0F99  01A7               	clrf	(___awtoft@sign)
  1847  0F9A  1403               	bsf	status,0
  1848  0F9B  0DA7               	rlf	(___awtoft@sign),f
  1849                           	
  1850  0F9C                     l30000789:	
  1851                           	line	41
  1852  0F9C  0828               	movf	(___awtoft@c),w
  1853  0F9D  00A0               	movwf	(?___ftpack)
  1854  0F9E  0829               	movf	(___awtoft@c+1),w
  1855  0F9F  00A1               	movwf	(?___ftpack+1)
  1856  0FA0  01A2               	clrf	(?___ftpack+2)
  1857  0FA1  308E               	movlw	(08Eh)
  1858  0FA2  00F8               	movwf	(??___awtoft+0+0)
  1859  0FA3  0878               	movf	(??___awtoft+0+0),w
  1860  0FA4  00A3               	movwf	0+(?___ftpack)+03h
  1861  0FA5  0827               	movf	(___awtoft@sign),w
  1862  0FA6  00F9               	movwf	(??___awtoft+1+0)
  1863  0FA7  0879               	movf	(??___awtoft+1+0),w
  1864  0FA8  00A4               	movwf	0+(?___ftpack)+04h
  1865  0FA9  120A  118A  2137   	fcall	___ftpack
              120A  158A         
  1866  0FAE  1383               	bcf	status, 7	;select IRP bank0
  1867  0FAF  1283               	bcf	status, 5	;RP0=0, select bank0
  1868  0FB0  1303               	bcf	status, 6	;RP1=0, select bank0
  1869  0FB1  0820               	movf	(0+(?___ftpack)),w
  1870  0FB2  00A8               	movwf	(?___awtoft)
  1871  0FB3  0821               	movf	(1+(?___ftpack)),w
  1872  0FB4  00A9               	movwf	(?___awtoft+1)
  1873  0FB5  0822               	movf	(2+(?___ftpack)),w
  1874  0FB6  00AA               	movwf	(?___awtoft+2)
  1875                           	
  1876  0FB7                     l183:	
  1877  0FB7  0008               	return
  1878                           	opt stack 0
  1879                           GLOBAL	__end_of___awtoft
  1880  0FB8                     	__end_of___awtoft:
  1881                           ; =============== function ___awtoft ends ============
  1882                           
  1883                           psect	text139,local,class=CODE,delta=2
  1884                           global __ptext139
  1885  0F51                     __ptext139:
  1886                           	line	42
  1887                           	signat	___awtoft,4219
  1888                           	global	___ftneg
  1889                           
  1890                           ; *************** function ___ftneg *****************
  1891                           ; Defined at:
  1892                           ;		line 16 in file "C:\Program Files (x86)\HI-TECH Software\PICC\9.70\sources\ftneg.c"
  1893                           ; Parameters:    Size  Location     Type
  1894                           ;  f1              3   11[BANK0 ] float 
  1895                           ; Auto vars:     Size  Location     Type
  1896                           ;		None
  1897                           ; Return value:  Size  Location     Type
  1898                           ;                  3   11[BANK0 ] float 
  1899                           ; Registers used:
  1900                           ;		wreg
  1901                           ; Tracked objects:
  1902                           ;		On entry : 0/0
  1903                           ;		On exit  : 0/0
  1904                           ;		Unchanged: 0/0
  1905                           ; Data sizes:     COMMON   BANK0   BANK1   BANK3   BANK2
  1906                           ;      Locals:         0       3       0       0       0
  1907                           ;      Temp:     0
  1908                           ;      Total:    3
  1909                           ; This function calls:
  1910                           ; This function is called by:
  1911                           ;		_lcd_float
  1912                           ; This function uses a non-reentrant model
  1913                           ; 
  1914                           psect	text139
  1915                           	file	"C:\Program Files (x86)\HI-TECH Software\PICC\9.70\sources\ftneg.c"
  1916                           	line	16
  1917                           	global	__size_of___ftneg
  1918  0012                     	__size_of___ftneg	equ	__end_of___ftneg-___ftneg
  1919                           	
  1920  0F51                     ___ftneg:	
  1921                           	opt stack 6
  1922                           ; Regs used in ___ftneg: [wreg]
  1923                           	line	17
  1924                           	
  1925  0F51                     l30000791:	
  1926  0F51  1283               	bcf	status, 5	;RP0=0, select bank0
  1927  0F52  1303               	bcf	status, 6	;RP1=0, select bank0
  1928  0F53  082D               	movf	(___ftneg@f1+2),w
  1929  0F54  042C               	iorwf	(___ftneg@f1+1),w
  1930  0F55  042B               	iorwf	(___ftneg@f1),w
  1931  0F56  1903               	skipnz
  1932  0F57  2F59               	goto	u1671
  1933  0F58  2F5A               	goto	u1670
  1934  0F59                     u1671:
  1935  0F59  2F5C               	goto	l207
  1936  0F5A                     u1670:
  1937                           	
  1938  0F5A                     l30000792:	
  1939                           	line	18
  1940  0F5A  3080               	movlw	080h
  1941  0F5B  06AD               	xorwf	(___ftneg@f1+2),f
  1942                           	
  1943  0F5C                     l207:	
  1944                           	line	19
  1945  0F5C  082B               	movf	(___ftneg@f1),w
  1946  0F5D  00AB               	movwf	(?___ftneg)
  1947  0F5E  082C               	movf	(___ftneg@f1+1),w
  1948  0F5F  00AC               	movwf	(?___ftneg+1)
  1949  0F60  082D               	movf	(___ftneg@f1+2),w
  1950  0F61  00AD               	movwf	(?___ftneg+2)
  1951                           	
  1952  0F62                     l206:	
  1953  0F62  0008               	return
  1954                           	opt stack 0
  1955                           GLOBAL	__end_of___ftneg
  1956  0F63                     	__end_of___ftneg:
  1957                           ; =============== function ___ftneg ends ============
  1958                           
  1959                           psect	text140,local,class=CODE,delta=2
  1960                           global __ptext140
  1961  0448                     __ptext140:
  1962                           	line	20
  1963                           	signat	___ftneg,4219
  1964                           	global	___ftmul
  1965                           
  1966                           ; *************** function ___ftmul *****************
  1967                           ; Defined at:
  1968                           ;		line 52 in file "C:\Program Files (x86)\HI-TECH Software\PICC\9.70\sources\ftmul.c"
  1969                           ; Parameters:    Size  Location     Type
  1970                           ;  f1              3   33[BANK0 ] float 
  1971                           ;  f2              3   36[BANK0 ] float 
  1972                           ; Auto vars:     Size  Location     Type
  1973                           ;  f3_as_produc    3   28[BANK0 ] unsigned um
  1974                           ;  sign            1   32[BANK0 ] unsigned char 
  1975                           ;  cntr            1   31[BANK0 ] unsigned char 
  1976                           ;  exp             1   27[BANK0 ] unsigned char 
  1977                           ; Return value:  Size  Location     Type
  1978                           ;                  3   33[BANK0 ] float 
  1979                           ; Registers used:
  1980                           ;		wreg, status,2, status,0, pclath, cstack
  1981                           ; Tracked objects:
  1982                           ;		On entry : 0/0
  1983                           ;		On exit  : 0/0
  1984                           ;		Unchanged: 0/0
  1985                           ; Data sizes:     COMMON   BANK0   BANK1   BANK3   BANK2
  1986                           ;      Locals:         0      16       0       0       0
  1987                           ;      Temp:     4
  1988                           ;      Total:   16
  1989                           ; This function calls:
  1990                           ;		___ftpack
  1991                           ; This function is called by:
  1992                           ;		_lcd_float
  1993                           ; This function uses a non-reentrant model
  1994                           ; 
  1995                           psect	text140
  1996                           	file	"C:\Program Files (x86)\HI-TECH Software\PICC\9.70\sources\ftmul.c"
  1997                           	line	52
  1998                           	global	__size_of___ftmul
  1999  00DC                     	__size_of___ftmul	equ	__end_of___ftmul-___ftmul
  2000                           	
  2001  0448                     ___ftmul:	
  2002                           	opt stack 6
  2003                           ; Regs used in ___ftmul: [wreg+status,2+status,0+pclath+cstack]
  2004                           	line	56
  2005                           	
  2006  0448                     l30000669:	
  2007  0448  1283               	bcf	status, 5	;RP0=0, select bank0
  2008  0449  1303               	bcf	status, 6	;RP1=0, select bank0
  2009  044A  0841               	movf	(___ftmul@f1),w
  2010  044B  00B7               	movwf	(??___ftmul+0+0)
  2011  044C  0842               	movf	(___ftmul@f1+1),w
  2012  044D  00B8               	movwf	(??___ftmul+0+0+1)
  2013  044E  0843               	movf	(___ftmul@f1+2),w
  2014  044F  00B9               	movwf	(??___ftmul+0+0+2)
  2015  0450  1003               	clrc
  2016  0451  0D38               	rlf	(??___ftmul+0+1),w
  2017  0452  0D39               	rlf	(??___ftmul+0+2),w
  2018  0453  00BB               	movwf	(___ftmul@exp)
  2019  0454  08BB               	movf	((___ftmul@exp))&07fh,f
  2020  0455  1D03               	skipz
  2021  0456  2C58               	goto	u1001
  2022  0457  2C59               	goto	u1000
  2023  0458                     u1001:
  2024  0458  2C60               	goto	l30000672
  2025  0459                     u1000:
  2026                           	
  2027  0459                     l30000670:	
  2028                           	line	57
  2029  0459  3000               	movlw	0x0
  2030  045A  00C1               	movwf	(?___ftmul)
  2031  045B  3000               	movlw	0x0
  2032  045C  00C2               	movwf	(?___ftmul+1)
  2033  045D  3000               	movlw	0x0
  2034  045E  00C3               	movwf	(?___ftmul+2)
  2035  045F  2D23               	goto	l114
  2036                           	
  2037  0460                     l30000672:	
  2038                           	line	58
  2039  0460  0844               	movf	(___ftmul@f2),w
  2040  0461  00B7               	movwf	(??___ftmul+0+0)
  2041  0462  0845               	movf	(___ftmul@f2+1),w
  2042  0463  00B8               	movwf	(??___ftmul+0+0+1)
  2043  0464  0846               	movf	(___ftmul@f2+2),w
  2044  0465  00B9               	movwf	(??___ftmul+0+0+2)
  2045  0466  1003               	clrc
  2046  0467  0D38               	rlf	(??___ftmul+0+1),w
  2047  0468  0D39               	rlf	(??___ftmul+0+2),w
  2048  0469  00C0               	movwf	(___ftmul@sign)
  2049  046A  08C0               	movf	((___ftmul@sign))&07fh,f
  2050  046B  1D03               	skipz
  2051  046C  2C6E               	goto	u1011
  2052  046D  2C6F               	goto	u1010
  2053  046E                     u1011:
  2054  046E  2C76               	goto	l30000675
  2055  046F                     u1010:
  2056                           	
  2057  046F                     l30000673:	
  2058                           	line	59
  2059  046F  3000               	movlw	0x0
  2060  0470  00C1               	movwf	(?___ftmul)
  2061  0471  3000               	movlw	0x0
  2062  0472  00C2               	movwf	(?___ftmul+1)
  2063  0473  3000               	movlw	0x0
  2064  0474  00C3               	movwf	(?___ftmul+2)
  2065  0475  2D23               	goto	l114
  2066                           	
  2067  0476                     l30000675:	
  2068                           	line	60
  2069  0476  0840               	movf	(___ftmul@sign),w
  2070  0477  3E7B               	addlw	07Bh
  2071  0478  00B7               	movwf	(??___ftmul+0+0)
  2072  0479  0837               	movf	(??___ftmul+0+0),w
  2073  047A  07BB               	addwf	(___ftmul@exp),f
  2074                           	line	61
  2075  047B  0841               	movf	(___ftmul@f1),w
  2076  047C  00B7               	movwf	(??___ftmul+0+0)
  2077  047D  0842               	movf	(___ftmul@f1+1),w
  2078  047E  00B8               	movwf	(??___ftmul+0+0+1)
  2079  047F  0843               	movf	(___ftmul@f1+2),w
  2080  0480  00B9               	movwf	(??___ftmul+0+0+2)
  2081  0481  3010               	movlw	010h
  2082  0482                     u1025:
  2083  0482  1003               	clrc
  2084  0483  0CB9               	rrf	(??___ftmul+0+2),f
  2085  0484  0CB8               	rrf	(??___ftmul+0+1),f
  2086  0485  0CB7               	rrf	(??___ftmul+0+0),f
  2087  0486                     u1020:
  2088  0486  3EFF               	addlw	-1
  2089  0487  1D03               	skipz
  2090  0488  2C82               	goto	u1025
  2091  0489  0837               	movf	0+(??___ftmul+0+0),w
  2092  048A  00C0               	movwf	(___ftmul@sign)
  2093                           	line	62
  2094  048B  0844               	movf	(___ftmul@f2),w
  2095  048C  00B7               	movwf	(??___ftmul+0+0)
  2096  048D  0845               	movf	(___ftmul@f2+1),w
  2097  048E  00B8               	movwf	(??___ftmul+0+0+1)
  2098  048F  0846               	movf	(___ftmul@f2+2),w
  2099  0490  00B9               	movwf	(??___ftmul+0+0+2)
  2100  0491  3010               	movlw	010h
  2101  0492                     u1035:
  2102  0492  1003               	clrc
  2103  0493  0CB9               	rrf	(??___ftmul+0+2),f
  2104  0494  0CB8               	rrf	(??___ftmul+0+1),f
  2105  0495  0CB7               	rrf	(??___ftmul+0+0),f
  2106  0496                     u1030:
  2107  0496  3EFF               	addlw	-1
  2108  0497  1D03               	skipz
  2109  0498  2C92               	goto	u1035
  2110  0499  0837               	movf	0+(??___ftmul+0+0),w
  2111  049A  00BA               	movwf	(??___ftmul+3+0)
  2112  049B  083A               	movf	(??___ftmul+3+0),w
  2113  049C  06C0               	xorwf	(___ftmul@sign),f
  2114                           	line	63
  2115  049D  3080               	movlw	(080h)
  2116  049E  00B7               	movwf	(??___ftmul+0+0)
  2117  049F  0837               	movf	(??___ftmul+0+0),w
  2118  04A0  05C0               	andwf	(___ftmul@sign),f
  2119                           	
  2120  04A1                     l30000676:	
  2121                           	line	64
  2122  04A1  17C2               	bsf	(___ftmul@f1)+(15/8),(15)&7
  2123                           	
  2124  04A2                     l30000677:	
  2125                           	line	66
  2126  04A2  17C5               	bsf	(___ftmul@f2)+(15/8),(15)&7
  2127                           	
  2128  04A3                     l30000678:	
  2129                           	line	67
  2130  04A3  30FF               	movlw	0FFh
  2131  04A4  05C4               	andwf	(___ftmul@f2),f
  2132  04A5  30FF               	movlw	0FFh
  2133  04A6  05C5               	andwf	(___ftmul@f2+1),f
  2134  04A7  3000               	movlw	0
  2135  04A8  05C6               	andwf	(___ftmul@f2+2),f
  2136                           	
  2137  04A9                     l30000679:	
  2138                           	line	68
  2139  04A9  3000               	movlw	0
  2140  04AA  00BC               	movwf	(___ftmul@f3_as_product)
  2141  04AB  3000               	movlw	0
  2142  04AC  00BD               	movwf	(___ftmul@f3_as_product+1)
  2143  04AD  3000               	movlw	0
  2144  04AE  00BE               	movwf	(___ftmul@f3_as_product+2)
  2145                           	
  2146  04AF                     l30000680:	
  2147                           	line	69
  2148  04AF  3007               	movlw	(07h)
  2149  04B0  00BF               	movwf	(___ftmul@cntr)
  2150                           	
  2151  04B1                     l30000681:	
  2152                           	line	71
  2153  04B1  1C41               	btfss	(___ftmul@f1),(0)&7
  2154  04B2  2CB4               	goto	u1041
  2155  04B3  2CB5               	goto	u1040
  2156  04B4                     u1041:
  2157  04B4  2CC5               	goto	l30000683
  2158  04B5                     u1040:
  2159                           	
  2160  04B5                     l30000682:	
  2161                           	line	72
  2162  04B5  0844               	movf	(___ftmul@f2),w
  2163  04B6  07BC               	addwf	(___ftmul@f3_as_product),f
  2164  04B7  0845               	movf	(___ftmul@f2+1),w
  2165  04B8  1103               	clrz
  2166  04B9  1803               	skipnc
  2167  04BA  0A45               	incf	(___ftmul@f2+1),w
  2168  04BB  1903               	skipnz
  2169  04BC  2CBE               	goto	u1051
  2170  04BD  07BD               	addwf	(___ftmul@f3_as_product+1),f
  2171  04BE                     u1051:
  2172  04BE  0846               	movf	(___ftmul@f2+2),w
  2173  04BF  1103               	clrz
  2174  04C0  1803               	skipnc
  2175  04C1  0A46               	incf	(___ftmul@f2+2),w
  2176  04C2  1903               	skipnz
  2177  04C3  2CC5               	goto	u1052
  2178  04C4  07BE               	addwf	(___ftmul@f3_as_product+2),f
  2179  04C5                     u1052:
  2180                           
  2181                           	
  2182  04C5                     l30000683:	
  2183                           	line	73
  2184  04C5  3001               	movlw	01h
  2185  04C6                     u1065:
  2186  04C6  1003               	clrc
  2187  04C7  0CC3               	rrf	(___ftmul@f1+2),f
  2188  04C8  0CC2               	rrf	(___ftmul@f1+1),f
  2189  04C9  0CC1               	rrf	(___ftmul@f1),f
  2190  04CA  3EFF               	addlw	-1
  2191  04CB  1D03               	skipz
  2192  04CC  2CC6               	goto	u1065
  2193                           
  2194                           	
  2195  04CD                     l30000684:	
  2196                           	line	74
  2197  04CD  3001               	movlw	01h
  2198  04CE                     u1075:
  2199  04CE  1003               	clrc
  2200  04CF  0DC4               	rlf	(___ftmul@f2),f
  2201  04D0  0DC5               	rlf	(___ftmul@f2+1),f
  2202  04D1  0DC6               	rlf	(___ftmul@f2+2),f
  2203  04D2  3EFF               	addlw	-1
  2204  04D3  1D03               	skipz
  2205  04D4  2CCE               	goto	u1075
  2206                           	
  2207  04D5                     l30000685:	
  2208                           	line	75
  2209  04D5  3001               	movlw	low(01h)
  2210  04D6  02BF               	subwf	(___ftmul@cntr),f
  2211  04D7  1D03               	btfss	status,2
  2212  04D8  2CDA               	goto	u1081
  2213  04D9  2CDB               	goto	u1080
  2214  04DA                     u1081:
  2215  04DA  2CB1               	goto	l30000681
  2216  04DB                     u1080:
  2217                           	
  2218  04DB                     l30000686:	
  2219                           	line	76
  2220  04DB  3009               	movlw	(09h)
  2221  04DC  00BF               	movwf	(___ftmul@cntr)
  2222                           	
  2223  04DD                     l30000687:	
  2224                           	line	78
  2225  04DD  1C41               	btfss	(___ftmul@f1),(0)&7
  2226  04DE  2CE0               	goto	u1091
  2227  04DF  2CE1               	goto	u1090
  2228  04E0                     u1091:
  2229  04E0  2CF1               	goto	l30000689
  2230  04E1                     u1090:
  2231                           	
  2232  04E1                     l30000688:	
  2233                           	line	79
  2234  04E1  0844               	movf	(___ftmul@f2),w
  2235  04E2  07BC               	addwf	(___ftmul@f3_as_product),f
  2236  04E3  0845               	movf	(___ftmul@f2+1),w
  2237  04E4  1103               	clrz
  2238  04E5  1803               	skipnc
  2239  04E6  0A45               	incf	(___ftmul@f2+1),w
  2240  04E7  1903               	skipnz
  2241  04E8  2CEA               	goto	u1101
  2242  04E9  07BD               	addwf	(___ftmul@f3_as_product+1),f
  2243  04EA                     u1101:
  2244  04EA  0846               	movf	(___ftmul@f2+2),w
  2245  04EB  1103               	clrz
  2246  04EC  1803               	skipnc
  2247  04ED  0A46               	incf	(___ftmul@f2+2),w
  2248  04EE  1903               	skipnz
  2249  04EF  2CF1               	goto	u1102
  2250  04F0  07BE               	addwf	(___ftmul@f3_as_product+2),f
  2251  04F1                     u1102:
  2252                           
  2253                           	
  2254  04F1                     l30000689:	
  2255                           	line	80
  2256  04F1  3001               	movlw	01h
  2257  04F2                     u1115:
  2258  04F2  1003               	clrc
  2259  04F3  0CC3               	rrf	(___ftmul@f1+2),f
  2260  04F4  0CC2               	rrf	(___ftmul@f1+1),f
  2261  04F5  0CC1               	rrf	(___ftmul@f1),f
  2262  04F6  3EFF               	addlw	-1
  2263  04F7  1D03               	skipz
  2264  04F8  2CF2               	goto	u1115
  2265                           
  2266                           	
  2267  04F9                     l30000690:	
  2268                           	line	81
  2269  04F9  3001               	movlw	01h
  2270  04FA                     u1125:
  2271  04FA  1003               	clrc
  2272  04FB  0CBE               	rrf	(___ftmul@f3_as_product+2),f
  2273  04FC  0CBD               	rrf	(___ftmul@f3_as_product+1),f
  2274  04FD  0CBC               	rrf	(___ftmul@f3_as_product),f
  2275  04FE  3EFF               	addlw	-1
  2276  04FF  1D03               	skipz
  2277  0500  2CFA               	goto	u1125
  2278                           
  2279                           	
  2280  0501                     l30000691:	
  2281                           	line	82
  2282  0501  3001               	movlw	low(01h)
  2283  0502  02BF               	subwf	(___ftmul@cntr),f
  2284  0503  1D03               	btfss	status,2
  2285  0504  2D06               	goto	u1131
  2286  0505  2D07               	goto	u1130
  2287  0506                     u1131:
  2288  0506  2CDD               	goto	l30000687
  2289  0507                     u1130:
  2290                           	
  2291  0507                     l30000692:	
  2292                           	line	83
  2293  0507  083C               	movf	(___ftmul@f3_as_product),w
  2294  0508  00A0               	movwf	(?___ftpack)
  2295  0509  083D               	movf	(___ftmul@f3_as_product+1),w
  2296  050A  00A1               	movwf	(?___ftpack+1)
  2297  050B  083E               	movf	(___ftmul@f3_as_product+2),w
  2298  050C  00A2               	movwf	(?___ftpack+2)
  2299  050D  083B               	movf	(___ftmul@exp),w
  2300  050E  00B7               	movwf	(??___ftmul+0+0)
  2301  050F  0837               	movf	(??___ftmul+0+0),w
  2302  0510  00A3               	movwf	0+(?___ftpack)+03h
  2303  0511  0840               	movf	(___ftmul@sign),w
  2304  0512  00B8               	movwf	(??___ftmul+1+0)
  2305  0513  0838               	movf	(??___ftmul+1+0),w
  2306  0514  00A4               	movwf	0+(?___ftpack)+04h
  2307  0515  120A  118A  2137   	fcall	___ftpack
              120A  118A         
  2308  051A  1383               	bcf	status, 7	;select IRP bank0
  2309  051B  1283               	bcf	status, 5	;RP0=0, select bank0
  2310  051C  1303               	bcf	status, 6	;RP1=0, select bank0
  2311  051D  0820               	movf	(0+(?___ftpack)),w
  2312  051E  00C1               	movwf	(?___ftmul)
  2313  051F  0821               	movf	(1+(?___ftpack)),w
  2314  0520  00C2               	movwf	(?___ftmul+1)
  2315  0521  0822               	movf	(2+(?___ftpack)),w
  2316  0522  00C3               	movwf	(?___ftmul+2)
  2317                           	
  2318  0523                     l114:	
  2319  0523  0008               	return
  2320                           	opt stack 0
  2321                           GLOBAL	__end_of___ftmul
  2322  0524                     	__end_of___ftmul:
  2323                           ; =============== function ___ftmul ends ============
  2324                           
  2325                           psect	text141,local,class=CODE,delta=2
  2326                           global __ptext141
  2327  0524                     __ptext141:
  2328                           	line	84
  2329                           	signat	___ftmul,8315
  2330                           	global	___ftadd
  2331                           
  2332                           ; *************** function ___ftadd *****************
  2333                           ; Defined at:
  2334                           ;		line 87 in file "C:\Program Files (x86)\HI-TECH Software\PICC\9.70\sources\ftadd.c"
  2335                           ; Parameters:    Size  Location     Type
  2336                           ;  f1              3   17[BANK0 ] float 
  2337                           ;  f2              3   20[BANK0 ] float 
  2338                           ; Auto vars:     Size  Location     Type
  2339                           ;  exp1            1   16[BANK0 ] unsigned char 
  2340                           ;  exp2            1   15[BANK0 ] unsigned char 
  2341                           ;  sign            1   14[BANK0 ] unsigned char 
  2342                           ; Return value:  Size  Location     Type
  2343                           ;                  3   17[BANK0 ] float 
  2344                           ; Registers used:
  2345                           ;		wreg, status,2, status,0, pclath, cstack
  2346                           ; Tracked objects:
  2347                           ;		On entry : 0/0
  2348                           ;		On exit  : 0/0
  2349                           ;		Unchanged: 0/0
  2350                           ; Data sizes:     COMMON   BANK0   BANK1   BANK3   BANK2
  2351                           ;      Locals:         3       9       0       0       0
  2352                           ;      Temp:     3
  2353                           ;      Total:   12
  2354                           ; This function calls:
  2355                           ;		___ftpack
  2356                           ; This function is called by:
  2357                           ;		_lcd_float
  2358                           ; This function uses a non-reentrant model
  2359                           ; 
  2360                           psect	text141
  2361                           	file	"C:\Program Files (x86)\HI-TECH Software\PICC\9.70\sources\ftadd.c"
  2362                           	line	87
  2363                           	global	__size_of___ftadd
  2364  014C                     	__size_of___ftadd	equ	__end_of___ftadd-___ftadd
  2365                           	
  2366  0524                     ___ftadd:	
  2367                           	opt stack 6
  2368                           ; Regs used in ___ftadd: [wreg+status,2+status,0+pclath+cstack]
  2369                           	line	90
  2370                           	
  2371  0524                     l30000748:	
  2372  0524  1283               	bcf	status, 5	;RP0=0, select bank0
  2373  0525  1303               	bcf	status, 6	;RP1=0, select bank0
  2374  0526  0831               	movf	(___ftadd@f1),w
  2375  0527  00FA               	movwf	(??___ftadd+0+0)
  2376  0528  0832               	movf	(___ftadd@f1+1),w
  2377  0529  00FB               	movwf	(??___ftadd+0+0+1)
  2378  052A  0833               	movf	(___ftadd@f1+2),w
  2379  052B  00FC               	movwf	(??___ftadd+0+0+2)
  2380  052C  1003               	clrc
  2381  052D  0D7B               	rlf	(??___ftadd+0+1),w
  2382  052E  0D7C               	rlf	(??___ftadd+0+2),w
  2383  052F  00B0               	movwf	(___ftadd@exp1)
  2384                           	line	91
  2385  0530  0834               	movf	(___ftadd@f2),w
  2386  0531  00FA               	movwf	(??___ftadd+0+0)
  2387  0532  0835               	movf	(___ftadd@f2+1),w
  2388  0533  00FB               	movwf	(??___ftadd+0+0+1)
  2389  0534  0836               	movf	(___ftadd@f2+2),w
  2390  0535  00FC               	movwf	(??___ftadd+0+0+2)
  2391  0536  1003               	clrc
  2392  0537  0D7B               	rlf	(??___ftadd+0+1),w
  2393  0538  0D7C               	rlf	(??___ftadd+0+2),w
  2394  0539  00AF               	movwf	(___ftadd@exp2)
  2395                           	
  2396  053A                     l30000749:	
  2397                           	line	92
  2398  053A  0830               	movf	(___ftadd@exp1),w
  2399  053B  1D03               	skipz
  2400  053C  2D3E               	goto	u1390
  2401  053D  2D4E               	goto	l30000752
  2402  053E                     u1390:
  2403                           	
  2404  053E                     l30000750:	
  2405  053E  082F               	movf	(___ftadd@exp2),w
  2406  053F  0230               	subwf	(___ftadd@exp1),w
  2407  0540  1803               	skipnc
  2408  0541  2D43               	goto	u1401
  2409  0542  2D44               	goto	u1400
  2410  0543                     u1401:
  2411  0543  2D55               	goto	l30000754
  2412  0544                     u1400:
  2413                           	
  2414  0544                     l30000751:	
  2415  0544  0330               	decf	(___ftadd@exp1),w
  2416  0545  3AFF               	xorlw	0ffh
  2417  0546  072F               	addwf	(___ftadd@exp2),w
  2418  0547  00FA               	movwf	(??___ftadd+0+0)
  2419  0548  3019               	movlw	low(019h)
  2420  0549  027A               	subwf	(??___ftadd+0+0),w
  2421  054A  1C03               	skipc
  2422  054B  2D4D               	goto	u1411
  2423  054C  2D4E               	goto	u1410
  2424  054D                     u1411:
  2425  054D  2D55               	goto	l30000754
  2426  054E                     u1410:
  2427                           	
  2428  054E                     l30000752:	
  2429                           	line	93
  2430  054E  0834               	movf	(___ftadd@f2),w
  2431  054F  00B1               	movwf	(?___ftadd)
  2432  0550  0835               	movf	(___ftadd@f2+1),w
  2433  0551  00B2               	movwf	(?___ftadd+1)
  2434  0552  0836               	movf	(___ftadd@f2+2),w
  2435  0553  00B3               	movwf	(?___ftadd+2)
  2436  0554  2E6F               	goto	l78
  2437                           	
  2438  0555                     l30000754:	
  2439                           	line	94
  2440  0555  082F               	movf	(___ftadd@exp2),w
  2441  0556  1D03               	skipz
  2442  0557  2D59               	goto	u1420
  2443  0558  2D69               	goto	l30000757
  2444  0559                     u1420:
  2445                           	
  2446  0559                     l30000755:	
  2447  0559  0830               	movf	(___ftadd@exp1),w
  2448  055A  022F               	subwf	(___ftadd@exp2),w
  2449  055B  1803               	skipnc
  2450  055C  2D5E               	goto	u1431
  2451  055D  2D5F               	goto	u1430
  2452  055E                     u1431:
  2453  055E  2D70               	goto	l30000759
  2454  055F                     u1430:
  2455                           	
  2456  055F                     l30000756:	
  2457  055F  032F               	decf	(___ftadd@exp2),w
  2458  0560  3AFF               	xorlw	0ffh
  2459  0561  0730               	addwf	(___ftadd@exp1),w
  2460  0562  00FA               	movwf	(??___ftadd+0+0)
  2461  0563  3019               	movlw	low(019h)
  2462  0564  027A               	subwf	(??___ftadd+0+0),w
  2463  0565  1C03               	skipc
  2464  0566  2D68               	goto	u1441
  2465  0567  2D69               	goto	u1440
  2466  0568                     u1441:
  2467  0568  2D70               	goto	l30000759
  2468  0569                     u1440:
  2469                           	
  2470  0569                     l30000757:	
  2471                           	line	95
  2472  0569  0831               	movf	(___ftadd@f1),w
  2473  056A  00B1               	movwf	(?___ftadd)
  2474  056B  0832               	movf	(___ftadd@f1+1),w
  2475  056C  00B2               	movwf	(?___ftadd+1)
  2476  056D  0833               	movf	(___ftadd@f1+2),w
  2477  056E  00B3               	movwf	(?___ftadd+2)
  2478  056F  2E6F               	goto	l78
  2479                           	
  2480  0570                     l30000759:	
  2481                           	line	96
  2482  0570  3006               	movlw	(06h)
  2483  0571  00AE               	movwf	(___ftadd@sign)
  2484                           	
  2485  0572                     l30000760:	
  2486                           	line	97
  2487  0572  1FB3               	btfss	(___ftadd@f1+2),(23)&7
  2488  0573  2D75               	goto	u1451
  2489  0574  2D76               	goto	u1450
  2490  0575                     u1451:
  2491  0575  2D77               	goto	l81
  2492  0576                     u1450:
  2493                           	
  2494  0576                     l30000761:	
  2495                           	line	98
  2496  0576  17AE               	bsf	(___ftadd@sign)+(7/8),(7)&7
  2497                           	
  2498  0577                     l81:	
  2499                           	line	99
  2500  0577  1FB6               	btfss	(___ftadd@f2+2),(23)&7
  2501  0578  2D7A               	goto	u1461
  2502  0579  2D7B               	goto	u1460
  2503  057A                     u1461:
  2504  057A  2D7C               	goto	l82
  2505  057B                     u1460:
  2506                           	
  2507  057B                     l30000762:	
  2508                           	line	100
  2509  057B  172E               	bsf	(___ftadd@sign)+(6/8),(6)&7
  2510                           	
  2511  057C                     l82:	
  2512                           	line	101
  2513  057C  17B2               	bsf	(___ftadd@f1)+(15/8),(15)&7
  2514                           	
  2515  057D                     l30000763:	
  2516                           	line	102
  2517  057D  30FF               	movlw	0FFh
  2518  057E  05B1               	andwf	(___ftadd@f1),f
  2519  057F  30FF               	movlw	0FFh
  2520  0580  05B2               	andwf	(___ftadd@f1+1),f
  2521  0581  3000               	movlw	0
  2522  0582  05B3               	andwf	(___ftadd@f1+2),f
  2523                           	
  2524  0583                     l30000764:	
  2525                           	line	103
  2526  0583  17B5               	bsf	(___ftadd@f2)+(15/8),(15)&7
  2527                           	line	104
  2528  0584  30FF               	movlw	0FFh
  2529  0585  05B4               	andwf	(___ftadd@f2),f
  2530  0586  30FF               	movlw	0FFh
  2531  0587  05B5               	andwf	(___ftadd@f2+1),f
  2532  0588  3000               	movlw	0
  2533  0589  05B6               	andwf	(___ftadd@f2+2),f
  2534                           	line	106
  2535  058A  082F               	movf	(___ftadd@exp2),w
  2536  058B  0230               	subwf	(___ftadd@exp1),w
  2537  058C  1803               	skipnc
  2538  058D  2D8F               	goto	u1471
  2539  058E  2D90               	goto	u1470
  2540  058F                     u1471:
  2541  058F  2DBC               	goto	l30000770
  2542  0590                     u1470:
  2543                           	
  2544  0590                     l30000765:	
  2545                           	line	110
  2546  0590  3001               	movlw	01h
  2547  0591                     u1485:
  2548  0591  1003               	clrc
  2549  0592  0DB4               	rlf	(___ftadd@f2),f
  2550  0593  0DB5               	rlf	(___ftadd@f2+1),f
  2551  0594  0DB6               	rlf	(___ftadd@f2+2),f
  2552  0595  3EFF               	addlw	-1
  2553  0596  1D03               	skipz
  2554  0597  2D91               	goto	u1485
  2555                           	line	111
  2556  0598  3001               	movlw	low(01h)
  2557  0599  02AF               	subwf	(___ftadd@exp2),f
  2558                           	
  2559  059A                     l30000766:	
  2560                           	line	112
  2561  059A  082F               	movf	(___ftadd@exp2),w
  2562  059B  0630               	xorwf	(___ftadd@exp1),w
  2563  059C  1903               	skipnz
  2564  059D  2D9F               	goto	u1491
  2565  059E  2DA0               	goto	u1490
  2566  059F                     u1491:
  2567  059F  2DB5               	goto	l30000769
  2568  05A0                     u1490:
  2569                           	
  2570  05A0                     l30000767:	
  2571  05A0  3001               	movlw	low(01h)
  2572  05A1  02AE               	subwf	(___ftadd@sign),f
  2573  05A2  082E               	movf	((___ftadd@sign))&07fh,w
  2574  05A3  3907               	andlw	07h
  2575  05A4  1D03               	btfss	status,2
  2576  05A5  2DA7               	goto	u1501
  2577  05A6  2DA8               	goto	u1500
  2578  05A7                     u1501:
  2579  05A7  2D90               	goto	l30000765
  2580  05A8                     u1500:
  2581  05A8  2DB5               	goto	l30000769
  2582                           	
  2583  05A9                     l30000768:	
  2584                           	line	114
  2585  05A9  3001               	movlw	01h
  2586  05AA                     u1515:
  2587  05AA  1003               	clrc
  2588  05AB  0CB3               	rrf	(___ftadd@f1+2),f
  2589  05AC  0CB2               	rrf	(___ftadd@f1+1),f
  2590  05AD  0CB1               	rrf	(___ftadd@f1),f
  2591  05AE  3EFF               	addlw	-1
  2592  05AF  1D03               	skipz
  2593  05B0  2DAA               	goto	u1515
  2594                           
  2595                           	line	115
  2596  05B1  3001               	movlw	(01h)
  2597  05B2  00FA               	movwf	(??___ftadd+0+0)
  2598  05B3  087A               	movf	(??___ftadd+0+0),w
  2599  05B4  07B0               	addwf	(___ftadd@exp1),f
  2600                           	
  2601  05B5                     l30000769:	
  2602                           	line	113
  2603  05B5  0830               	movf	(___ftadd@exp1),w
  2604  05B6  062F               	xorwf	(___ftadd@exp2),w
  2605  05B7  1D03               	skipz
  2606  05B8  2DBA               	goto	u1521
  2607  05B9  2DBB               	goto	u1520
  2608  05BA                     u1521:
  2609  05BA  2DA9               	goto	l30000768
  2610  05BB                     u1520:
  2611  05BB  2DED               	goto	l90
  2612                           	
  2613  05BC                     l30000770:	
  2614                           	line	117
  2615  05BC  0830               	movf	(___ftadd@exp1),w
  2616  05BD  022F               	subwf	(___ftadd@exp2),w
  2617  05BE  1803               	skipnc
  2618  05BF  2DC1               	goto	u1531
  2619  05C0  2DC2               	goto	u1530
  2620  05C1                     u1531:
  2621  05C1  2DED               	goto	l90
  2622  05C2                     u1530:
  2623                           	
  2624  05C2                     l30000771:	
  2625                           	line	121
  2626  05C2  3001               	movlw	01h
  2627  05C3                     u1545:
  2628  05C3  1003               	clrc
  2629  05C4  0DB1               	rlf	(___ftadd@f1),f
  2630  05C5  0DB2               	rlf	(___ftadd@f1+1),f
  2631  05C6  0DB3               	rlf	(___ftadd@f1+2),f
  2632  05C7  3EFF               	addlw	-1
  2633  05C8  1D03               	skipz
  2634  05C9  2DC3               	goto	u1545
  2635                           	line	122
  2636  05CA  3001               	movlw	low(01h)
  2637  05CB  02B0               	subwf	(___ftadd@exp1),f
  2638                           	
  2639  05CC                     l30000772:	
  2640                           	line	123
  2641  05CC  082F               	movf	(___ftadd@exp2),w
  2642  05CD  0630               	xorwf	(___ftadd@exp1),w
  2643  05CE  1903               	skipnz
  2644  05CF  2DD1               	goto	u1551
  2645  05D0  2DD2               	goto	u1550
  2646  05D1                     u1551:
  2647  05D1  2DE7               	goto	l30000775
  2648  05D2                     u1550:
  2649                           	
  2650  05D2                     l30000773:	
  2651  05D2  3001               	movlw	low(01h)
  2652  05D3  02AE               	subwf	(___ftadd@sign),f
  2653  05D4  082E               	movf	((___ftadd@sign))&07fh,w
  2654  05D5  3907               	andlw	07h
  2655  05D6  1D03               	btfss	status,2
  2656  05D7  2DD9               	goto	u1561
  2657  05D8  2DDA               	goto	u1560
  2658  05D9                     u1561:
  2659  05D9  2DC2               	goto	l30000771
  2660  05DA                     u1560:
  2661  05DA  2DE7               	goto	l30000775
  2662                           	
  2663  05DB                     l30000774:	
  2664                           	line	125
  2665  05DB  3001               	movlw	01h
  2666  05DC                     u1575:
  2667  05DC  1003               	clrc
  2668  05DD  0CB6               	rrf	(___ftadd@f2+2),f
  2669  05DE  0CB5               	rrf	(___ftadd@f2+1),f
  2670  05DF  0CB4               	rrf	(___ftadd@f2),f
  2671  05E0  3EFF               	addlw	-1
  2672  05E1  1D03               	skipz
  2673  05E2  2DDC               	goto	u1575
  2674                           
  2675                           	line	126
  2676  05E3  3001               	movlw	(01h)
  2677  05E4  00FA               	movwf	(??___ftadd+0+0)
  2678  05E5  087A               	movf	(??___ftadd+0+0),w
  2679  05E6  07AF               	addwf	(___ftadd@exp2),f
  2680                           	
  2681  05E7                     l30000775:	
  2682                           	line	124
  2683  05E7  0830               	movf	(___ftadd@exp1),w
  2684  05E8  062F               	xorwf	(___ftadd@exp2),w
  2685  05E9  1D03               	skipz
  2686  05EA  2DEC               	goto	u1581
  2687  05EB  2DED               	goto	u1580
  2688  05EC                     u1581:
  2689  05EC  2DDB               	goto	l30000774
  2690  05ED                     u1580:
  2691                           	
  2692  05ED                     l90:	
  2693                           	line	129
  2694  05ED  1FAE               	btfss	(___ftadd@sign),(7)&7
  2695  05EE  2DF0               	goto	u1591
  2696  05EF  2DF1               	goto	u1590
  2697  05F0                     u1591:
  2698  05F0  2E07               	goto	l30000777
  2699  05F1                     u1590:
  2700                           	
  2701  05F1                     l30000776:	
  2702                           	line	131
  2703  05F1  30FF               	movlw	0FFh
  2704  05F2  06B1               	xorwf	(___ftadd@f1),f
  2705  05F3  30FF               	movlw	0FFh
  2706  05F4  06B2               	xorwf	(___ftadd@f1+1),f
  2707  05F5  30FF               	movlw	0FFh
  2708  05F6  06B3               	xorwf	(___ftadd@f1+2),f
  2709                           	line	132
  2710  05F7  3001               	movlw	01h
  2711  05F8  07B1               	addwf	(___ftadd@f1),f
  2712  05F9  3000               	movlw	0
  2713  05FA  1103               	clrz
  2714  05FB  1803               	skipnc
  2715  05FC  3E01               	addlw	1
  2716  05FD  1903               	skipnz
  2717  05FE  2E00               	goto	u1601
  2718  05FF  07B2               	addwf	(___ftadd@f1+1),f
  2719  0600                     u1601:
  2720  0600  3000               	movlw	0
  2721  0601  1103               	clrz
  2722  0602  1803               	skipnc
  2723  0603  3E01               	addlw	1
  2724  0604  1903               	skipnz
  2725  0605  2E07               	goto	u1602
  2726  0606  07B3               	addwf	(___ftadd@f1+2),f
  2727  0607                     u1602:
  2728                           
  2729                           	
  2730  0607                     l30000777:	
  2731                           	line	134
  2732  0607  1F2E               	btfss	(___ftadd@sign),(6)&7
  2733  0608  2E0A               	goto	u1611
  2734  0609  2E0B               	goto	u1610
  2735  060A                     u1611:
  2736  060A  2E21               	goto	l30000779
  2737  060B                     u1610:
  2738                           	
  2739  060B                     l30000778:	
  2740                           	line	136
  2741  060B  30FF               	movlw	0FFh
  2742  060C  06B4               	xorwf	(___ftadd@f2),f
  2743  060D  30FF               	movlw	0FFh
  2744  060E  06B5               	xorwf	(___ftadd@f2+1),f
  2745  060F  30FF               	movlw	0FFh
  2746  0610  06B6               	xorwf	(___ftadd@f2+2),f
  2747                           	line	137
  2748  0611  3001               	movlw	01h
  2749  0612  07B4               	addwf	(___ftadd@f2),f
  2750  0613  3000               	movlw	0
  2751  0614  1103               	clrz
  2752  0615  1803               	skipnc
  2753  0616  3E01               	addlw	1
  2754  0617  1903               	skipnz
  2755  0618  2E1A               	goto	u1621
  2756  0619  07B5               	addwf	(___ftadd@f2+1),f
  2757  061A                     u1621:
  2758  061A  3000               	movlw	0
  2759  061B  1103               	clrz
  2760  061C  1803               	skipnc
  2761  061D  3E01               	addlw	1
  2762  061E  1903               	skipnz
  2763  061F  2E21               	goto	u1622
  2764  0620  07B6               	addwf	(___ftadd@f2+2),f
  2765  0621                     u1622:
  2766                           
  2767                           	
  2768  0621                     l30000779:	
  2769                           	line	139
  2770  0621  1003               	clrc
  2771  0622  3000               	movlw	0
  2772  0623  1803               	btfsc	status,0
  2773  0624  3001               	movlw	1
  2774  0625  00AE               	movwf	(___ftadd@sign)
  2775                           	
  2776  0626                     l30000780:	
  2777                           	line	140
  2778  0626  0831               	movf	(___ftadd@f1),w
  2779  0627  07B4               	addwf	(___ftadd@f2),f
  2780  0628  0832               	movf	(___ftadd@f1+1),w
  2781  0629  1103               	clrz
  2782  062A  1803               	skipnc
  2783  062B  0A32               	incf	(___ftadd@f1+1),w
  2784  062C  1903               	skipnz
  2785  062D  2E2F               	goto	u1631
  2786  062E  07B5               	addwf	(___ftadd@f2+1),f
  2787  062F                     u1631:
  2788  062F  0833               	movf	(___ftadd@f1+2),w
  2789  0630  1103               	clrz
  2790  0631  1803               	skipnc
  2791  0632  0A33               	incf	(___ftadd@f1+2),w
  2792  0633  1903               	skipnz
  2793  0634  2E36               	goto	u1632
  2794  0635  07B6               	addwf	(___ftadd@f2+2),f
  2795  0636                     u1632:
  2796                           
  2797                           	
  2798  0636                     l30000781:	
  2799                           	line	141
  2800  0636  1FB6               	btfss	(___ftadd@f2+2),(23)&7
  2801  0637  2E39               	goto	u1641
  2802  0638  2E3A               	goto	u1640
  2803  0639                     u1641:
  2804  0639  2E53               	goto	l30000784
  2805  063A                     u1640:
  2806                           	
  2807  063A                     l30000782:	
  2808                           	line	142
  2809  063A  30FF               	movlw	0FFh
  2810  063B  06B4               	xorwf	(___ftadd@f2),f
  2811  063C  30FF               	movlw	0FFh
  2812  063D  06B5               	xorwf	(___ftadd@f2+1),f
  2813  063E  30FF               	movlw	0FFh
  2814  063F  06B6               	xorwf	(___ftadd@f2+2),f
  2815                           	line	143
  2816  0640  3001               	movlw	01h
  2817  0641  07B4               	addwf	(___ftadd@f2),f
  2818  0642  3000               	movlw	0
  2819  0643  1103               	clrz
  2820  0644  1803               	skipnc
  2821  0645  3E01               	addlw	1
  2822  0646  1903               	skipnz
  2823  0647  2E49               	goto	u1651
  2824  0648  07B5               	addwf	(___ftadd@f2+1),f
  2825  0649                     u1651:
  2826  0649  3000               	movlw	0
  2827  064A  1103               	clrz
  2828  064B  1803               	skipnc
  2829  064C  3E01               	addlw	1
  2830  064D  1903               	skipnz
  2831  064E  2E50               	goto	u1652
  2832  064F  07B6               	addwf	(___ftadd@f2+2),f
  2833  0650                     u1652:
  2834                           
  2835                           	
  2836  0650                     l30000783:	
  2837                           	line	144
  2838  0650  01AE               	clrf	(___ftadd@sign)
  2839  0651  1403               	bsf	status,0
  2840  0652  0DAE               	rlf	(___ftadd@sign),f
  2841                           	
  2842  0653                     l30000784:	
  2843                           	line	146
  2844  0653  0834               	movf	(___ftadd@f2),w
  2845  0654  00A0               	movwf	(?___ftpack)
  2846  0655  0835               	movf	(___ftadd@f2+1),w
  2847  0656  00A1               	movwf	(?___ftpack+1)
  2848  0657  0836               	movf	(___ftadd@f2+2),w
  2849  0658  00A2               	movwf	(?___ftpack+2)
  2850  0659  0830               	movf	(___ftadd@exp1),w
  2851  065A  00FA               	movwf	(??___ftadd+0+0)
  2852  065B  087A               	movf	(??___ftadd+0+0),w
  2853  065C  00A3               	movwf	0+(?___ftpack)+03h
  2854  065D  082E               	movf	(___ftadd@sign),w
  2855  065E  00FB               	movwf	(??___ftadd+1+0)
  2856  065F  087B               	movf	(??___ftadd+1+0),w
  2857  0660  00A4               	movwf	0+(?___ftpack)+04h
  2858  0661  120A  118A  2137   	fcall	___ftpack
              120A  118A         
  2859  0666  1383               	bcf	status, 7	;select IRP bank0
  2860  0667  1283               	bcf	status, 5	;RP0=0, select bank0
  2861  0668  1303               	bcf	status, 6	;RP1=0, select bank0
  2862  0669  0820               	movf	(0+(?___ftpack)),w
  2863  066A  00B1               	movwf	(?___ftadd)
  2864  066B  0821               	movf	(1+(?___ftpack)),w
  2865  066C  00B2               	movwf	(?___ftadd+1)
  2866  066D  0822               	movf	(2+(?___ftpack)),w
  2867  066E  00B3               	movwf	(?___ftadd+2)
  2868                           	
  2869  066F                     l78:	
  2870  066F  0008               	return
  2871                           	opt stack 0
  2872                           GLOBAL	__end_of___ftadd
  2873  0670                     	__end_of___ftadd:
  2874                           ; =============== function ___ftadd ends ============
  2875                           
  2876                           psect	text142,local,class=CODE,delta=2
  2877                           global __ptext142
  2878  0670                     __ptext142:
  2879                           	line	148
  2880                           	signat	___ftadd,8315
  2881                           	global	_lcd_integer
  2882                           
  2883                           ; *************** function _lcd_integer *****************
  2884                           ; Defined at:
  2885                           ;		line 60 in file "C:\Users\Jarvis\Desktop\PIC16f877a_coding\LCD_interfacing_4_bit\lcd.
                                 c"
  2886                           ; Parameters:    Size  Location     Type
  2887                           ;  x               4   12[BANK1 ] long 
  2888                           ; Auto vars:     Size  Location     Type
  2889                           ;  m               4    8[BANK1 ] long 
  2890                           ;  y               4    4[BANK1 ] long 
  2891                           ; Return value:  Size  Location     Type
  2892                           ;		None               void
  2893                           ; Registers used:
  2894                           ;		wreg, status,2, status,0, pclath, cstack
  2895                           ; Tracked objects:
  2896                           ;		On entry : 0/0
  2897                           ;		On exit  : 0/0
  2898                           ;		Unchanged: 0/0
  2899                           ; Data sizes:     COMMON   BANK0   BANK1   BANK3   BANK2
  2900                           ;      Locals:         0       1      12       0       0
  2901                           ;      Temp:     1
  2902                           ;      Total:   13
  2903                           ; This function calls:
  2904                           ;		___aldiv
  2905                           ;		___lmul
  2906                           ;		_lcd_data
  2907                           ;		___almod
  2908                           ; This function is called by:
  2909                           ;		_lcd_float
  2910                           ; This function uses a non-reentrant model
  2911                           ; 
  2912                           psect	text142
  2913                           	file	"C:\Users\Jarvis\Desktop\PIC16f877a_coding\LCD_interfacing_4_bit\lcd.c"
  2914                           	line	60
  2915                           	global	__size_of_lcd_integer
  2916  0190                     	__size_of_lcd_integer	equ	__end_of_lcd_integer-_lcd_integer
  2917                           ;lcd.c: 59: void lcd_integer(long int x)
  2918                           ;lcd.c: 60: {long int y=x;
  2919                           	
  2920  0670                     _lcd_integer:	
  2921                           	opt stack 6
  2922                           ; Regs used in _lcd_integer: [wreg+status,2+status,0+pclath+cstack]
  2923                           	
  2924  0670                     l30000924:	
  2925  0670  1683               	bsf	status, 5	;RP0=1, select bank1
  2926  0671  1303               	bcf	status, 6	;RP1=0, select bank1
  2927  0672  082F               	movf	(lcd_integer@x+3)^080h,w
  2928  0673  00A7               	movwf	(lcd_integer@y+3)^080h
  2929  0674  082E               	movf	(lcd_integer@x+2)^080h,w
  2930  0675  00A6               	movwf	(lcd_integer@y+2)^080h
  2931  0676  082D               	movf	(lcd_integer@x+1)^080h,w
  2932  0677  00A5               	movwf	(lcd_integer@y+1)^080h
  2933  0678  082C               	movf	(lcd_integer@x)^080h,w
  2934  0679  00A4               	movwf	(lcd_integer@y)^080h
  2935                           
  2936                           	line	61
  2937                           ;lcd.c: 61: long int m=1;
  2938  067A  3000               	movlw	0
  2939  067B  00AB               	movwf	(lcd_integer@m+3)^080h
  2940  067C  3000               	movlw	0
  2941  067D  00AA               	movwf	(lcd_integer@m+2)^080h
  2942  067E  3000               	movlw	0
  2943  067F  00A9               	movwf	(lcd_integer@m+1)^080h
  2944  0680  3001               	movlw	01h
  2945  0681  00A8               	movwf	(lcd_integer@m)^080h
  2946                           
  2947  0682  2EFD               	goto	l30000926
  2948                           	
  2949  0683                     l30000925:	
  2950                           	line	64
  2951                           ;lcd.c: 63: {
  2952                           ;lcd.c: 64: y/=10;
  2953  0683  1683               	bsf	status, 5	;RP0=1, select bank1
  2954  0684  1303               	bcf	status, 6	;RP1=0, select bank1
  2955  0685  0827               	movf	(lcd_integer@y+3)^080h,w
  2956  0686  1283               	bcf	status, 5	;RP0=0, select bank0
  2957  0687  1303               	bcf	status, 6	;RP1=0, select bank0
  2958  0688  00A9               	movwf	(?___aldiv+3)
  2959  0689  1683               	bsf	status, 5	;RP0=1, select bank1
  2960  068A  1303               	bcf	status, 6	;RP1=0, select bank1
  2961  068B  0826               	movf	(lcd_integer@y+2)^080h,w
  2962  068C  1283               	bcf	status, 5	;RP0=0, select bank0
  2963  068D  1303               	bcf	status, 6	;RP1=0, select bank0
  2964  068E  00A8               	movwf	(?___aldiv+2)
  2965  068F  1683               	bsf	status, 5	;RP0=1, select bank1
  2966  0690  1303               	bcf	status, 6	;RP1=0, select bank1
  2967  0691  0825               	movf	(lcd_integer@y+1)^080h,w
  2968  0692  1283               	bcf	status, 5	;RP0=0, select bank0
  2969  0693  1303               	bcf	status, 6	;RP1=0, select bank0
  2970  0694  00A7               	movwf	(?___aldiv+1)
  2971  0695  1683               	bsf	status, 5	;RP0=1, select bank1
  2972  0696  1303               	bcf	status, 6	;RP1=0, select bank1
  2973  0697  0824               	movf	(lcd_integer@y)^080h,w
  2974  0698  1283               	bcf	status, 5	;RP0=0, select bank0
  2975  0699  1303               	bcf	status, 6	;RP1=0, select bank0
  2976  069A  00A6               	movwf	(?___aldiv)
  2977                           
  2978  069B  3000               	movlw	0
  2979  069C  00AD               	movwf	3+(?___aldiv)+04h
  2980  069D  3000               	movlw	0
  2981  069E  00AC               	movwf	2+(?___aldiv)+04h
  2982  069F  3000               	movlw	0
  2983  06A0  00AB               	movwf	1+(?___aldiv)+04h
  2984  06A1  300A               	movlw	0Ah
  2985  06A2  00AA               	movwf	0+(?___aldiv)+04h
  2986                           
  2987  06A3  120A  118A  2237   	fcall	___aldiv
              120A  118A         
  2988  06A8  1383               	bcf	status, 7	;select IRP bank0
  2989  06A9  1283               	bcf	status, 5	;RP0=0, select bank0
  2990  06AA  1303               	bcf	status, 6	;RP1=0, select bank0
  2991  06AB  0829               	movf	(3+(?___aldiv)),w
  2992  06AC  1683               	bsf	status, 5	;RP0=1, select bank1
  2993  06AD  1303               	bcf	status, 6	;RP1=0, select bank1
  2994  06AE  00A7               	movwf	(lcd_integer@y+3)^080h
  2995  06AF  1283               	bcf	status, 5	;RP0=0, select bank0
  2996  06B0  1303               	bcf	status, 6	;RP1=0, select bank0
  2997  06B1  0828               	movf	(2+(?___aldiv)),w
  2998  06B2  1683               	bsf	status, 5	;RP0=1, select bank1
  2999  06B3  1303               	bcf	status, 6	;RP1=0, select bank1
  3000  06B4  00A6               	movwf	(lcd_integer@y+2)^080h
  3001  06B5  1283               	bcf	status, 5	;RP0=0, select bank0
  3002  06B6  1303               	bcf	status, 6	;RP1=0, select bank0
  3003  06B7  0827               	movf	(1+(?___aldiv)),w
  3004  06B8  1683               	bsf	status, 5	;RP0=1, select bank1
  3005  06B9  1303               	bcf	status, 6	;RP1=0, select bank1
  3006  06BA  00A5               	movwf	(lcd_integer@y+1)^080h
  3007  06BB  1283               	bcf	status, 5	;RP0=0, select bank0
  3008  06BC  1303               	bcf	status, 6	;RP1=0, select bank0
  3009  06BD  0826               	movf	(0+(?___aldiv)),w
  3010  06BE  1683               	bsf	status, 5	;RP0=1, select bank1
  3011  06BF  1303               	bcf	status, 6	;RP1=0, select bank1
  3012  06C0  00A4               	movwf	(lcd_integer@y)^080h
  3013                           
  3014                           	line	65
  3015                           ;lcd.c: 65: m*=10;
  3016  06C1  082B               	movf	(lcd_integer@m+3)^080h,w
  3017  06C2  1283               	bcf	status, 5	;RP0=0, select bank0
  3018  06C3  1303               	bcf	status, 6	;RP1=0, select bank0
  3019  06C4  00A3               	movwf	(?___lmul+3)
  3020  06C5  1683               	bsf	status, 5	;RP0=1, select bank1
  3021  06C6  1303               	bcf	status, 6	;RP1=0, select bank1
  3022  06C7  082A               	movf	(lcd_integer@m+2)^080h,w
  3023  06C8  1283               	bcf	status, 5	;RP0=0, select bank0
  3024  06C9  1303               	bcf	status, 6	;RP1=0, select bank0
  3025  06CA  00A2               	movwf	(?___lmul+2)
  3026  06CB  1683               	bsf	status, 5	;RP0=1, select bank1
  3027  06CC  1303               	bcf	status, 6	;RP1=0, select bank1
  3028  06CD  0829               	movf	(lcd_integer@m+1)^080h,w
  3029  06CE  1283               	bcf	status, 5	;RP0=0, select bank0
  3030  06CF  1303               	bcf	status, 6	;RP1=0, select bank0
  3031  06D0  00A1               	movwf	(?___lmul+1)
  3032  06D1  1683               	bsf	status, 5	;RP0=1, select bank1
  3033  06D2  1303               	bcf	status, 6	;RP1=0, select bank1
  3034  06D3  0828               	movf	(lcd_integer@m)^080h,w
  3035  06D4  1283               	bcf	status, 5	;RP0=0, select bank0
  3036  06D5  1303               	bcf	status, 6	;RP1=0, select bank0
  3037  06D6  00A0               	movwf	(?___lmul)
  3038                           
  3039  06D7  3000               	movlw	0
  3040  06D8  00A7               	movwf	3+(?___lmul)+04h
  3041  06D9  3000               	movlw	0
  3042  06DA  00A6               	movwf	2+(?___lmul)+04h
  3043  06DB  3000               	movlw	0
  3044  06DC  00A5               	movwf	1+(?___lmul)+04h
  3045  06DD  300A               	movlw	0Ah
  3046  06DE  00A4               	movwf	0+(?___lmul)+04h
  3047                           
  3048  06DF  120A  158A  27B8   	fcall	___lmul
              120A  118A         
  3049  06E4  1383               	bcf	status, 7	;select IRP bank0
  3050  06E5  1283               	bcf	status, 5	;RP0=0, select bank0
  3051  06E6  1303               	bcf	status, 6	;RP1=0, select bank0
  3052  06E7  0823               	movf	(3+(?___lmul)),w
  3053  06E8  1683               	bsf	status, 5	;RP0=1, select bank1
  3054  06E9  1303               	bcf	status, 6	;RP1=0, select bank1
  3055  06EA  00AB               	movwf	(lcd_integer@m+3)^080h
  3056  06EB  1283               	bcf	status, 5	;RP0=0, select bank0
  3057  06EC  1303               	bcf	status, 6	;RP1=0, select bank0
  3058  06ED  0822               	movf	(2+(?___lmul)),w
  3059  06EE  1683               	bsf	status, 5	;RP0=1, select bank1
  3060  06EF  1303               	bcf	status, 6	;RP1=0, select bank1
  3061  06F0  00AA               	movwf	(lcd_integer@m+2)^080h
  3062  06F1  1283               	bcf	status, 5	;RP0=0, select bank0
  3063  06F2  1303               	bcf	status, 6	;RP1=0, select bank0
  3064  06F3  0821               	movf	(1+(?___lmul)),w
  3065  06F4  1683               	bsf	status, 5	;RP0=1, select bank1
  3066  06F5  1303               	bcf	status, 6	;RP1=0, select bank1
  3067  06F6  00A9               	movwf	(lcd_integer@m+1)^080h
  3068  06F7  1283               	bcf	status, 5	;RP0=0, select bank0
  3069  06F8  1303               	bcf	status, 6	;RP1=0, select bank0
  3070  06F9  0820               	movf	(0+(?___lmul)),w
  3071  06FA  1683               	bsf	status, 5	;RP0=1, select bank1
  3072  06FB  1303               	bcf	status, 6	;RP1=0, select bank1
  3073  06FC  00A8               	movwf	(lcd_integer@m)^080h
  3074                           
  3075                           	
  3076  06FD                     l30000926:	
  3077                           	line	62
  3078  06FD  0827               	movf	(lcd_integer@y+3)^080h,w
  3079  06FE  3A80               	xorlw	80h
  3080  06FF  1283               	bcf	status, 5	;RP0=0, select bank0
  3081  0700  1303               	bcf	status, 6	;RP1=0, select bank0
  3082  0701  00D0               	movwf	(??_lcd_integer+0+0)
  3083  0702  3080               	movlw	high highword(0Ah)^80h
  3084  0703  0250               	subwf	(??_lcd_integer+0+0),w
  3085  0704  1D03               	skipz
  3086  0705  2F12               	goto	u2104
  3087  0706  3000               	movlw	low highword(0Ah)
  3088  0707  1683               	bsf	status, 5	;RP0=1, select bank1
  3089  0708  1303               	bcf	status, 6	;RP1=0, select bank1
  3090  0709  0226               	subwf	(lcd_integer@y+2)^080h,w
  3091  070A  1D03               	skipz
  3092  070B  2F12               	goto	u2104
  3093  070C  3000               	movlw	high(0Ah)
  3094  070D  0225               	subwf	(lcd_integer@y+1)^080h,w
  3095  070E  1D03               	skipz
  3096  070F  2F12               	goto	u2104
  3097  0710  300A               	movlw	low(0Ah)
  3098  0711  0224               	subwf	(lcd_integer@y)^080h,w
  3099  0712                     u2104:
  3100  0712  1283               	bcf	status, 5	;RP0=0, select bank0
  3101  0713  1303               	bcf	status, 6	;RP1=0, select bank0
  3102                           
  3103  0714  1803               	skipnc
  3104  0715  2F17               	goto	u2101
  3105  0716  2F18               	goto	u2100
  3106  0717                     u2101:
  3107  0717  2E83               	goto	l30000925
  3108  0718                     u2100:
  3109  0718  2FE2               	goto	l30000928
  3110                           	
  3111  0719                     l30000927:	
  3112                           	line	69
  3113                           ;lcd.c: 68: {
  3114                           ;lcd.c: 69: lcd_data((x/m)+48);
  3115  0719  1683               	bsf	status, 5	;RP0=1, select bank1
  3116  071A  1303               	bcf	status, 6	;RP1=0, select bank1
  3117  071B  082F               	movf	(lcd_integer@x+3)^080h,w
  3118  071C  1283               	bcf	status, 5	;RP0=0, select bank0
  3119  071D  1303               	bcf	status, 6	;RP1=0, select bank0
  3120  071E  00A9               	movwf	(?___aldiv+3)
  3121  071F  1683               	bsf	status, 5	;RP0=1, select bank1
  3122  0720  1303               	bcf	status, 6	;RP1=0, select bank1
  3123  0721  082E               	movf	(lcd_integer@x+2)^080h,w
  3124  0722  1283               	bcf	status, 5	;RP0=0, select bank0
  3125  0723  1303               	bcf	status, 6	;RP1=0, select bank0
  3126  0724  00A8               	movwf	(?___aldiv+2)
  3127  0725  1683               	bsf	status, 5	;RP0=1, select bank1
  3128  0726  1303               	bcf	status, 6	;RP1=0, select bank1
  3129  0727  082D               	movf	(lcd_integer@x+1)^080h,w
  3130  0728  1283               	bcf	status, 5	;RP0=0, select bank0
  3131  0729  1303               	bcf	status, 6	;RP1=0, select bank0
  3132  072A  00A7               	movwf	(?___aldiv+1)
  3133  072B  1683               	bsf	status, 5	;RP0=1, select bank1
  3134  072C  1303               	bcf	status, 6	;RP1=0, select bank1
  3135  072D  082C               	movf	(lcd_integer@x)^080h,w
  3136  072E  1283               	bcf	status, 5	;RP0=0, select bank0
  3137  072F  1303               	bcf	status, 6	;RP1=0, select bank0
  3138  0730  00A6               	movwf	(?___aldiv)
  3139                           
  3140  0731  1683               	bsf	status, 5	;RP0=1, select bank1
  3141  0732  1303               	bcf	status, 6	;RP1=0, select bank1
  3142  0733  082B               	movf	(lcd_integer@m+3)^080h,w
  3143  0734  1283               	bcf	status, 5	;RP0=0, select bank0
  3144  0735  1303               	bcf	status, 6	;RP1=0, select bank0
  3145  0736  00AD               	movwf	3+(?___aldiv)+04h
  3146  0737  1683               	bsf	status, 5	;RP0=1, select bank1
  3147  0738  1303               	bcf	status, 6	;RP1=0, select bank1
  3148  0739  082A               	movf	(lcd_integer@m+2)^080h,w
  3149  073A  1283               	bcf	status, 5	;RP0=0, select bank0
  3150  073B  1303               	bcf	status, 6	;RP1=0, select bank0
  3151  073C  00AC               	movwf	2+(?___aldiv)+04h
  3152  073D  1683               	bsf	status, 5	;RP0=1, select bank1
  3153  073E  1303               	bcf	status, 6	;RP1=0, select bank1
  3154  073F  0829               	movf	(lcd_integer@m+1)^080h,w
  3155  0740  1283               	bcf	status, 5	;RP0=0, select bank0
  3156  0741  1303               	bcf	status, 6	;RP1=0, select bank0
  3157  0742  00AB               	movwf	1+(?___aldiv)+04h
  3158  0743  1683               	bsf	status, 5	;RP0=1, select bank1
  3159  0744  1303               	bcf	status, 6	;RP1=0, select bank1
  3160  0745  0828               	movf	(lcd_integer@m)^080h,w
  3161  0746  1283               	bcf	status, 5	;RP0=0, select bank0
  3162  0747  1303               	bcf	status, 6	;RP1=0, select bank0
  3163  0748  00AA               	movwf	0+(?___aldiv)+04h
  3164                           
  3165  0749  120A  118A  2237   	fcall	___aldiv
              120A  118A         
  3166  074E  1383               	bcf	status, 7	;select IRP bank0
  3167  074F  1283               	bcf	status, 5	;RP0=0, select bank0
  3168  0750  1303               	bcf	status, 6	;RP1=0, select bank0
  3169  0751  0826               	movf	(0+(?___aldiv)),w
  3170  0752  3E30               	addlw	030h
  3171  0753  120A  118A  2093   	fcall	_lcd_data
              120A  118A         
  3172                           	line	70
  3173                           ;lcd.c: 70: x=x%m;
  3174  0758  1683               	bsf	status, 5	;RP0=1, select bank1
  3175  0759  1303               	bcf	status, 6	;RP1=0, select bank1
  3176  075A  082F               	movf	(lcd_integer@x+3)^080h,w
  3177  075B  1283               	bcf	status, 5	;RP0=0, select bank0
  3178  075C  1303               	bcf	status, 6	;RP1=0, select bank0
  3179  075D  00A3               	movwf	(?___almod+3)
  3180  075E  1683               	bsf	status, 5	;RP0=1, select bank1
  3181  075F  1303               	bcf	status, 6	;RP1=0, select bank1
  3182  0760  082E               	movf	(lcd_integer@x+2)^080h,w
  3183  0761  1283               	bcf	status, 5	;RP0=0, select bank0
  3184  0762  1303               	bcf	status, 6	;RP1=0, select bank0
  3185  0763  00A2               	movwf	(?___almod+2)
  3186  0764  1683               	bsf	status, 5	;RP0=1, select bank1
  3187  0765  1303               	bcf	status, 6	;RP1=0, select bank1
  3188  0766  082D               	movf	(lcd_integer@x+1)^080h,w
  3189  0767  1283               	bcf	status, 5	;RP0=0, select bank0
  3190  0768  1303               	bcf	status, 6	;RP1=0, select bank0
  3191  0769  00A1               	movwf	(?___almod+1)
  3192  076A  1683               	bsf	status, 5	;RP0=1, select bank1
  3193  076B  1303               	bcf	status, 6	;RP1=0, select bank1
  3194  076C  082C               	movf	(lcd_integer@x)^080h,w
  3195  076D  1283               	bcf	status, 5	;RP0=0, select bank0
  3196  076E  1303               	bcf	status, 6	;RP1=0, select bank0
  3197  076F  00A0               	movwf	(?___almod)
  3198                           
  3199  0770  1683               	bsf	status, 5	;RP0=1, select bank1
  3200  0771  1303               	bcf	status, 6	;RP1=0, select bank1
  3201  0772  082B               	movf	(lcd_integer@m+3)^080h,w
  3202  0773  1283               	bcf	status, 5	;RP0=0, select bank0
  3203  0774  1303               	bcf	status, 6	;RP1=0, select bank0
  3204  0775  00A7               	movwf	3+(?___almod)+04h
  3205  0776  1683               	bsf	status, 5	;RP0=1, select bank1
  3206  0777  1303               	bcf	status, 6	;RP1=0, select bank1
  3207  0778  082A               	movf	(lcd_integer@m+2)^080h,w
  3208  0779  1283               	bcf	status, 5	;RP0=0, select bank0
  3209  077A  1303               	bcf	status, 6	;RP1=0, select bank0
  3210  077B  00A6               	movwf	2+(?___almod)+04h
  3211  077C  1683               	bsf	status, 5	;RP0=1, select bank1
  3212  077D  1303               	bcf	status, 6	;RP1=0, select bank1
  3213  077E  0829               	movf	(lcd_integer@m+1)^080h,w
  3214  077F  1283               	bcf	status, 5	;RP0=0, select bank0
  3215  0780  1303               	bcf	status, 6	;RP1=0, select bank0
  3216  0781  00A5               	movwf	1+(?___almod)+04h
  3217  0782  1683               	bsf	status, 5	;RP0=1, select bank1
  3218  0783  1303               	bcf	status, 6	;RP1=0, select bank1
  3219  0784  0828               	movf	(lcd_integer@m)^080h,w
  3220  0785  1283               	bcf	status, 5	;RP0=0, select bank0
  3221  0786  1303               	bcf	status, 6	;RP1=0, select bank0
  3222  0787  00A4               	movwf	0+(?___almod)+04h
  3223                           
  3224  0788  120A  118A  21B3   	fcall	___almod
              120A  118A         
  3225  078D  1383               	bcf	status, 7	;select IRP bank0
  3226  078E  1283               	bcf	status, 5	;RP0=0, select bank0
  3227  078F  1303               	bcf	status, 6	;RP1=0, select bank0
  3228  0790  0823               	movf	(3+(?___almod)),w
  3229  0791  1683               	bsf	status, 5	;RP0=1, select bank1
  3230  0792  1303               	bcf	status, 6	;RP1=0, select bank1
  3231  0793  00AF               	movwf	(lcd_integer@x+3)^080h
  3232  0794  1283               	bcf	status, 5	;RP0=0, select bank0
  3233  0795  1303               	bcf	status, 6	;RP1=0, select bank0
  3234  0796  0822               	movf	(2+(?___almod)),w
  3235  0797  1683               	bsf	status, 5	;RP0=1, select bank1
  3236  0798  1303               	bcf	status, 6	;RP1=0, select bank1
  3237  0799  00AE               	movwf	(lcd_integer@x+2)^080h
  3238  079A  1283               	bcf	status, 5	;RP0=0, select bank0
  3239  079B  1303               	bcf	status, 6	;RP1=0, select bank0
  3240  079C  0821               	movf	(1+(?___almod)),w
  3241  079D  1683               	bsf	status, 5	;RP0=1, select bank1
  3242  079E  1303               	bcf	status, 6	;RP1=0, select bank1
  3243  079F  00AD               	movwf	(lcd_integer@x+1)^080h
  3244  07A0  1283               	bcf	status, 5	;RP0=0, select bank0
  3245  07A1  1303               	bcf	status, 6	;RP1=0, select bank0
  3246  07A2  0820               	movf	(0+(?___almod)),w
  3247  07A3  1683               	bsf	status, 5	;RP0=1, select bank1
  3248  07A4  1303               	bcf	status, 6	;RP1=0, select bank1
  3249  07A5  00AC               	movwf	(lcd_integer@x)^080h
  3250                           
  3251                           	line	72
  3252                           ;lcd.c: 72: m/=10;
  3253  07A6  082B               	movf	(lcd_integer@m+3)^080h,w
  3254  07A7  1283               	bcf	status, 5	;RP0=0, select bank0
  3255  07A8  1303               	bcf	status, 6	;RP1=0, select bank0
  3256  07A9  00A9               	movwf	(?___aldiv+3)
  3257  07AA  1683               	bsf	status, 5	;RP0=1, select bank1
  3258  07AB  1303               	bcf	status, 6	;RP1=0, select bank1
  3259  07AC  082A               	movf	(lcd_integer@m+2)^080h,w
  3260  07AD  1283               	bcf	status, 5	;RP0=0, select bank0
  3261  07AE  1303               	bcf	status, 6	;RP1=0, select bank0
  3262  07AF  00A8               	movwf	(?___aldiv+2)
  3263  07B0  1683               	bsf	status, 5	;RP0=1, select bank1
  3264  07B1  1303               	bcf	status, 6	;RP1=0, select bank1
  3265  07B2  0829               	movf	(lcd_integer@m+1)^080h,w
  3266  07B3  1283               	bcf	status, 5	;RP0=0, select bank0
  3267  07B4  1303               	bcf	status, 6	;RP1=0, select bank0
  3268  07B5  00A7               	movwf	(?___aldiv+1)
  3269  07B6  1683               	bsf	status, 5	;RP0=1, select bank1
  3270  07B7  1303               	bcf	status, 6	;RP1=0, select bank1
  3271  07B8  0828               	movf	(lcd_integer@m)^080h,w
  3272  07B9  1283               	bcf	status, 5	;RP0=0, select bank0
  3273  07BA  1303               	bcf	status, 6	;RP1=0, select bank0
  3274  07BB  00A6               	movwf	(?___aldiv)
  3275                           
  3276  07BC  3000               	movlw	0
  3277  07BD  00AD               	movwf	3+(?___aldiv)+04h
  3278  07BE  3000               	movlw	0
  3279  07BF  00AC               	movwf	2+(?___aldiv)+04h
  3280  07C0  3000               	movlw	0
  3281  07C1  00AB               	movwf	1+(?___aldiv)+04h
  3282  07C2  300A               	movlw	0Ah
  3283  07C3  00AA               	movwf	0+(?___aldiv)+04h
  3284                           
  3285  07C4  120A  118A  2237   	fcall	___aldiv
              120A  118A         
  3286  07C9  1383               	bcf	status, 7	;select IRP bank0
  3287  07CA  1283               	bcf	status, 5	;RP0=0, select bank0
  3288  07CB  1303               	bcf	status, 6	;RP1=0, select bank0
  3289  07CC  0829               	movf	(3+(?___aldiv)),w
  3290  07CD  1683               	bsf	status, 5	;RP0=1, select bank1
  3291  07CE  1303               	bcf	status, 6	;RP1=0, select bank1
  3292  07CF  00AB               	movwf	(lcd_integer@m+3)^080h
  3293  07D0  1283               	bcf	status, 5	;RP0=0, select bank0
  3294  07D1  1303               	bcf	status, 6	;RP1=0, select bank0
  3295  07D2  0828               	movf	(2+(?___aldiv)),w
  3296  07D3  1683               	bsf	status, 5	;RP0=1, select bank1
  3297  07D4  1303               	bcf	status, 6	;RP1=0, select bank1
  3298  07D5  00AA               	movwf	(lcd_integer@m+2)^080h
  3299  07D6  1283               	bcf	status, 5	;RP0=0, select bank0
  3300  07D7  1303               	bcf	status, 6	;RP1=0, select bank0
  3301  07D8  0827               	movf	(1+(?___aldiv)),w
  3302  07D9  1683               	bsf	status, 5	;RP0=1, select bank1
  3303  07DA  1303               	bcf	status, 6	;RP1=0, select bank1
  3304  07DB  00A9               	movwf	(lcd_integer@m+1)^080h
  3305  07DC  1283               	bcf	status, 5	;RP0=0, select bank0
  3306  07DD  1303               	bcf	status, 6	;RP1=0, select bank0
  3307  07DE  0826               	movf	(0+(?___aldiv)),w
  3308  07DF  1683               	bsf	status, 5	;RP0=1, select bank1
  3309  07E0  1303               	bcf	status, 6	;RP1=0, select bank1
  3310  07E1  00A8               	movwf	(lcd_integer@m)^080h
  3311                           
  3312                           	
  3313  07E2                     l30000928:	
  3314                           	line	67
  3315  07E2  1683               	bsf	status, 5	;RP0=1, select bank1
  3316  07E3  1303               	bcf	status, 6	;RP1=0, select bank1
  3317  07E4  082B               	movf	(lcd_integer@m+3)^080h,w
  3318  07E5  3A80               	xorlw	80h
  3319  07E6  1283               	bcf	status, 5	;RP0=0, select bank0
  3320  07E7  1303               	bcf	status, 6	;RP1=0, select bank0
  3321  07E8  00D0               	movwf	(??_lcd_integer+0+0)
  3322  07E9  3080               	movlw	high highword(01h)^80h
  3323  07EA  0250               	subwf	(??_lcd_integer+0+0),w
  3324  07EB  1D03               	skipz
  3325  07EC  2FF9               	goto	u2114
  3326  07ED  3000               	movlw	low highword(01h)
  3327  07EE  1683               	bsf	status, 5	;RP0=1, select bank1
  3328  07EF  1303               	bcf	status, 6	;RP1=0, select bank1
  3329  07F0  022A               	subwf	(lcd_integer@m+2)^080h,w
  3330  07F1  1D03               	skipz
  3331  07F2  2FF9               	goto	u2114
  3332  07F3  3000               	movlw	high(01h)
  3333  07F4  0229               	subwf	(lcd_integer@m+1)^080h,w
  3334  07F5  1D03               	skipz
  3335  07F6  2FF9               	goto	u2114
  3336  07F7  3001               	movlw	low(01h)
  3337  07F8  0228               	subwf	(lcd_integer@m)^080h,w
  3338  07F9                     u2114:
  3339  07F9  1283               	bcf	status, 5	;RP0=0, select bank0
  3340  07FA  1303               	bcf	status, 6	;RP1=0, select bank0
  3341                           
  3342  07FB  1803               	skipnc
  3343  07FC  2FFE               	goto	u2111
  3344  07FD  2FFF               	goto	u2110
  3345  07FE                     u2111:
  3346  07FE  2F19               	goto	l30000927
  3347  07FF                     u2110:
  3348                           	
  3349  07FF                     l20:	
  3350  07FF  0008               	return
  3351                           	opt stack 0
  3352                           GLOBAL	__end_of_lcd_integer
  3353  0800                     	__end_of_lcd_integer:
  3354                           ; =============== function _lcd_integer ends ============
  3355                           
  3356                           psect	text143,local,class=CODE,delta=2
  3357                           global __ptext143
  3358  038F                     __ptext143:
  3359                           	line	74
  3360                           	signat	_lcd_integer,4216
  3361                           	global	___fttol
  3362                           
  3363                           ; *************** function ___fttol *****************
  3364                           ; Defined at:
  3365                           ;		line 45 in file "C:\Program Files (x86)\HI-TECH Software\PICC\9.70\sources\fttol.c"
  3366                           ; Parameters:    Size  Location     Type
  3367                           ;  f1              3    0[BANK1 ] float 
  3368                           ; Auto vars:     Size  Location     Type
  3369                           ;  lval            4   43[BANK0 ] unsigned long 
  3370                           ;  exp1            1   47[BANK0 ] unsigned char 
  3371                           ;  sign1           1   42[BANK0 ] unsigned char 
  3372                           ; Return value:  Size  Location     Type
  3373                           ;                  4    0[BANK1 ] long 
  3374                           ; Registers used:
  3375                           ;		wreg, status,2, status,0
  3376                           ; Tracked objects:
  3377                           ;		On entry : 0/0
  3378                           ;		On exit  : 0/0
  3379                           ;		Unchanged: 0/0
  3380                           ; Data sizes:     COMMON   BANK0   BANK1   BANK3   BANK2
  3381                           ;      Locals:         0       9       4       0       0
  3382                           ;      Temp:     3
  3383                           ;      Total:   13
  3384                           ; This function calls:
  3385                           ; This function is called by:
  3386                           ;		_lcd_float
  3387                           ; This function uses a non-reentrant model
  3388                           ; 
  3389                           psect	text143
  3390                           	file	"C:\Program Files (x86)\HI-TECH Software\PICC\9.70\sources\fttol.c"
  3391                           	line	45
  3392                           	global	__size_of___fttol
  3393  00B9                     	__size_of___fttol	equ	__end_of___fttol-___fttol
  3394                           	
  3395  038F                     ___fttol:	
  3396                           	opt stack 6
  3397                           ; Regs used in ___fttol: [wreg+status,2+status,0]
  3398                           	line	49
  3399                           	
  3400  038F                     l30000893:	
  3401  038F  1683               	bsf	status, 5	;RP0=1, select bank1
  3402  0390  1303               	bcf	status, 6	;RP1=0, select bank1
  3403  0391  0820               	movf	(___fttol@f1)^080h,w
  3404  0392  1283               	bcf	status, 5	;RP0=0, select bank0
  3405  0393  1303               	bcf	status, 6	;RP1=0, select bank0
  3406  0394  00C7               	movwf	(??___fttol+0+0)
  3407  0395  1683               	bsf	status, 5	;RP0=1, select bank1
  3408  0396  1303               	bcf	status, 6	;RP1=0, select bank1
  3409  0397  0821               	movf	(___fttol@f1+1)^080h,w
  3410  0398  1283               	bcf	status, 5	;RP0=0, select bank0
  3411  0399  1303               	bcf	status, 6	;RP1=0, select bank0
  3412  039A  00C8               	movwf	(??___fttol+0+0+1)
  3413  039B  1683               	bsf	status, 5	;RP0=1, select bank1
  3414  039C  1303               	bcf	status, 6	;RP1=0, select bank1
  3415  039D  0822               	movf	(___fttol@f1+2)^080h,w
  3416  039E  1283               	bcf	status, 5	;RP0=0, select bank0
  3417  039F  1303               	bcf	status, 6	;RP1=0, select bank0
  3418  03A0  00C9               	movwf	(??___fttol+0+0+2)
  3419  03A1  1003               	clrc
  3420  03A2  0D48               	rlf	(??___fttol+0+1),w
  3421  03A3  0D49               	rlf	(??___fttol+0+2),w
  3422  03A4  00CF               	movwf	(___fttol@exp1)
  3423  03A5  08CF               	movf	((___fttol@exp1))&07fh,f
  3424  03A6  1D03               	skipz
  3425  03A7  2BA9               	goto	u1991
  3426  03A8  2BAA               	goto	u1990
  3427  03A9                     u1991:
  3428  03A9  2BB5               	goto	l30000896
  3429  03AA                     u1990:
  3430                           	
  3431  03AA                     l30000894:	
  3432                           	line	50
  3433  03AA  3000               	movlw	0
  3434  03AB  1683               	bsf	status, 5	;RP0=1, select bank1
  3435  03AC  1303               	bcf	status, 6	;RP1=0, select bank1
  3436  03AD  00A3               	movwf	(?___fttol+3)^080h
  3437  03AE  3000               	movlw	0
  3438  03AF  00A2               	movwf	(?___fttol+2)^080h
  3439  03B0  3000               	movlw	0
  3440  03B1  00A1               	movwf	(?___fttol+1)^080h
  3441  03B2  3000               	movlw	0
  3442  03B3  00A0               	movwf	(?___fttol)^080h
  3443                           
  3444  03B4  2C47               	goto	l167
  3445                           	
  3446  03B5                     l30000896:	
  3447                           	line	51
  3448  03B5  1683               	bsf	status, 5	;RP0=1, select bank1
  3449  03B6  1303               	bcf	status, 6	;RP1=0, select bank1
  3450  03B7  0820               	movf	(___fttol@f1)^080h,w
  3451  03B8  1283               	bcf	status, 5	;RP0=0, select bank0
  3452  03B9  1303               	bcf	status, 6	;RP1=0, select bank0
  3453  03BA  00C7               	movwf	(??___fttol+0+0)
  3454  03BB  1683               	bsf	status, 5	;RP0=1, select bank1
  3455  03BC  1303               	bcf	status, 6	;RP1=0, select bank1
  3456  03BD  0821               	movf	(___fttol@f1+1)^080h,w
  3457  03BE  1283               	bcf	status, 5	;RP0=0, select bank0
  3458  03BF  1303               	bcf	status, 6	;RP1=0, select bank0
  3459  03C0  00C8               	movwf	(??___fttol+0+0+1)
  3460  03C1  1683               	bsf	status, 5	;RP0=1, select bank1
  3461  03C2  1303               	bcf	status, 6	;RP1=0, select bank1
  3462  03C3  0822               	movf	(___fttol@f1+2)^080h,w
  3463  03C4  1283               	bcf	status, 5	;RP0=0, select bank0
  3464  03C5  1303               	bcf	status, 6	;RP1=0, select bank0
  3465  03C6  00C9               	movwf	(??___fttol+0+0+2)
  3466  03C7  3017               	movlw	017h
  3467  03C8                     u2005:
  3468  03C8  1003               	clrc
  3469  03C9  0CC9               	rrf	(??___fttol+0+2),f
  3470  03CA  0CC8               	rrf	(??___fttol+0+1),f
  3471  03CB  0CC7               	rrf	(??___fttol+0+0),f
  3472  03CC                     u2000:
  3473  03CC  3EFF               	addlw	-1
  3474  03CD  1D03               	skipz
  3475  03CE  2BC8               	goto	u2005
  3476  03CF  0847               	movf	0+(??___fttol+0+0),w
  3477  03D0  00CA               	movwf	(___fttol@sign1)
  3478                           	
  3479  03D1                     l30000897:	
  3480                           	line	52
  3481  03D1  1683               	bsf	status, 5	;RP0=1, select bank1
  3482  03D2  1303               	bcf	status, 6	;RP1=0, select bank1
  3483  03D3  17A1               	bsf	(___fttol@f1)^080h+(15/8),(15)&7
  3484                           	
  3485  03D4                     l30000898:	
  3486                           	line	53
  3487  03D4  30FF               	movlw	0FFh
  3488  03D5  05A0               	andwf	(___fttol@f1)^080h,f
  3489  03D6  30FF               	movlw	0FFh
  3490  03D7  05A1               	andwf	(___fttol@f1+1)^080h,f
  3491  03D8  3000               	movlw	0
  3492  03D9  05A2               	andwf	(___fttol@f1+2)^080h,f
  3493                           	
  3494  03DA                     l30000899:	
  3495                           	line	54
  3496  03DA  0820               	movf	(___fttol@f1)^080h,w
  3497  03DB  1283               	bcf	status, 5	;RP0=0, select bank0
  3498  03DC  1303               	bcf	status, 6	;RP1=0, select bank0
  3499  03DD  00CB               	movwf	(___fttol@lval)
  3500  03DE  1683               	bsf	status, 5	;RP0=1, select bank1
  3501  03DF  1303               	bcf	status, 6	;RP1=0, select bank1
  3502  03E0  0821               	movf	(___fttol@f1+1)^080h,w
  3503  03E1  1283               	bcf	status, 5	;RP0=0, select bank0
  3504  03E2  1303               	bcf	status, 6	;RP1=0, select bank0
  3505  03E3  00CC               	movwf	((___fttol@lval))+1
  3506                           	
  3507  03E4  1683               	bsf	status, 5	;RP0=1, select bank1
  3508  03E5  1303               	bcf	status, 6	;RP1=0, select bank1
  3509  03E6  0822               	movf	(___fttol@f1+2)^080h,w
  3510  03E7  1283               	bcf	status, 5	;RP0=0, select bank0
  3511  03E8  1303               	bcf	status, 6	;RP1=0, select bank0
  3512  03E9  00CD               	movwf	((___fttol@lval))+2
  3513                           	
  3514  03EA  01CE               	clrf	3+(___fttol@lval)
  3515                           	
  3516  03EB                     l30000900:	
  3517                           	line	55
  3518  03EB  308E               	movlw	low(08Eh)
  3519  03EC  02CF               	subwf	(___fttol@exp1),f
  3520                           	
  3521  03ED                     l30000901:	
  3522                           	line	56
  3523  03ED  1FCF               	btfss	(___fttol@exp1),7
  3524  03EE  2BF0               	goto	u2011
  3525  03EF  2BF1               	goto	u2010
  3526  03F0                     u2011:
  3527  03F0  2C0B               	goto	l30000906
  3528  03F1                     u2010:
  3529                           	
  3530  03F1                     l30000902:	
  3531                           	line	57
  3532  03F1  084F               	movf	(___fttol@exp1),w
  3533  03F2  3A80               	xorlw	80h
  3534  03F3  3E8F               	addlw	-((-15)^80h)
  3535  03F4  1803               	skipnc
  3536  03F5  2BF7               	goto	u2021
  3537  03F6  2BF8               	goto	u2020
  3538  03F7                     u2021:
  3539  03F7  2BF9               	goto	l30000905
  3540  03F8                     u2020:
  3541  03F8  2BAA               	goto	l30000894
  3542                           	
  3543  03F9                     l30000905:	
  3544                           	line	60
  3545  03F9  3001               	movlw	01h
  3546  03FA                     u2035:
  3547  03FA  1003               	clrc
  3548  03FB  0CCE               	rrf	(___fttol@lval+3),f
  3549  03FC  0CCD               	rrf	(___fttol@lval+2),f
  3550  03FD  0CCC               	rrf	(___fttol@lval+1),f
  3551  03FE  0CCB               	rrf	(___fttol@lval),f
  3552  03FF  3EFF               	addlw	-1
  3553  0400  1D03               	skipz
  3554  0401  2BFA               	goto	u2035
  3555                           
  3556                           	line	61
  3557  0402  3001               	movlw	(01h)
  3558  0403  00C7               	movwf	(??___fttol+0+0)
  3559  0404  0847               	movf	(??___fttol+0+0),w
  3560  0405  07CF               	addwf	(___fttol@exp1),f
  3561  0406  1D03               	btfss	status,2
  3562  0407  2C09               	goto	u2041
  3563  0408  2C0A               	goto	u2040
  3564  0409                     u2041:
  3565  0409  2BF9               	goto	l30000905
  3566  040A                     u2040:
  3567  040A  2C22               	goto	l30000911
  3568                           	
  3569  040B                     l30000906:	
  3570                           	line	63
  3571  040B  3018               	movlw	(018h)
  3572  040C  024F               	subwf	(___fttol@exp1),w
  3573  040D  1C03               	skipc
  3574  040E  2C10               	goto	u2051
  3575  040F  2C11               	goto	u2050
  3576  0410                     u2051:
  3577  0410  2C1D               	goto	l30000910
  3578  0411                     u2050:
  3579  0411  2BAA               	goto	l30000894
  3580                           	
  3581  0412                     l30000909:	
  3582                           	line	66
  3583  0412  3001               	movlw	01h
  3584  0413  00C7               	movwf	(??___fttol+0+0)
  3585  0414                     u2065:
  3586  0414  1003               	clrc
  3587  0415  0DCB               	rlf	(___fttol@lval),f
  3588  0416  0DCC               	rlf	(___fttol@lval+1),f
  3589  0417  0DCD               	rlf	(___fttol@lval+2),f
  3590  0418  0DCE               	rlf	(___fttol@lval+3),f
  3591  0419  0BC7               	decfsz	(??___fttol+0+0)
  3592  041A  2C14               	goto	u2065
  3593                           	line	67
  3594  041B  3001               	movlw	low(01h)
  3595  041C  02CF               	subwf	(___fttol@exp1),f
  3596                           	
  3597  041D                     l30000910:	
  3598                           	line	65
  3599  041D  08CF               	movf	(___fttol@exp1),f
  3600  041E  1D03               	skipz
  3601  041F  2C21               	goto	u2071
  3602  0420  2C22               	goto	u2070
  3603  0421                     u2071:
  3604  0421  2C12               	goto	l30000909
  3605  0422                     u2070:
  3606                           	
  3607  0422                     l30000911:	
  3608                           	line	70
  3609  0422  084A               	movf	(___fttol@sign1),w
  3610  0423  1D03               	skipz
  3611  0424  2C26               	goto	u2080
  3612  0425  2C31               	goto	l30000913
  3613  0426                     u2080:
  3614                           	
  3615  0426                     l30000912:	
  3616                           	line	71
  3617  0426  09CB               	comf	(___fttol@lval),f
  3618  0427  09CC               	comf	(___fttol@lval+1),f
  3619  0428  09CD               	comf	(___fttol@lval+2),f
  3620  0429  09CE               	comf	(___fttol@lval+3),f
  3621  042A  0ACB               	incf	(___fttol@lval),f
  3622  042B  1903               	skipnz
  3623  042C  0ACC               	incf	(___fttol@lval+1),f
  3624  042D  1903               	skipnz
  3625  042E  0ACD               	incf	(___fttol@lval+2),f
  3626  042F  1903               	skipnz
  3627  0430  0ACE               	incf	(___fttol@lval+3),f
  3628                           	
  3629  0431                     l30000913:	
  3630                           	line	72
  3631  0431  084E               	movf	(___fttol@lval+3),w
  3632  0432  1683               	bsf	status, 5	;RP0=1, select bank1
  3633  0433  1303               	bcf	status, 6	;RP1=0, select bank1
  3634  0434  00A3               	movwf	(?___fttol+3)^080h
  3635  0435  1283               	bcf	status, 5	;RP0=0, select bank0
  3636  0436  1303               	bcf	status, 6	;RP1=0, select bank0
  3637  0437  084D               	movf	(___fttol@lval+2),w
  3638  0438  1683               	bsf	status, 5	;RP0=1, select bank1
  3639  0439  1303               	bcf	status, 6	;RP1=0, select bank1
  3640  043A  00A2               	movwf	(?___fttol+2)^080h
  3641  043B  1283               	bcf	status, 5	;RP0=0, select bank0
  3642  043C  1303               	bcf	status, 6	;RP1=0, select bank0
  3643  043D  084C               	movf	(___fttol@lval+1),w
  3644  043E  1683               	bsf	status, 5	;RP0=1, select bank1
  3645  043F  1303               	bcf	status, 6	;RP1=0, select bank1
  3646  0440  00A1               	movwf	(?___fttol+1)^080h
  3647  0441  1283               	bcf	status, 5	;RP0=0, select bank0
  3648  0442  1303               	bcf	status, 6	;RP1=0, select bank0
  3649  0443  084B               	movf	(___fttol@lval),w
  3650  0444  1683               	bsf	status, 5	;RP0=1, select bank1
  3651  0445  1303               	bcf	status, 6	;RP1=0, select bank1
  3652  0446  00A0               	movwf	(?___fttol)^080h
  3653                           
  3654                           	
  3655  0447                     l167:	
  3656  0447  0008               	return
  3657                           	opt stack 0
  3658                           GLOBAL	__end_of___fttol
  3659  0448                     	__end_of___fttol:
  3660                           ; =============== function ___fttol ends ============
  3661                           
  3662                           psect	text144,local,class=CODE,delta=2
  3663                           global __ptext144
  3664  00E2                     __ptext144:
  3665                           	line	73
  3666                           	signat	___fttol,4220
  3667                           	global	_lcd_command
  3668                           
  3669                           ; *************** function _lcd_command *****************
  3670                           ; Defined at:
  3671                           ;		line 11 in file "C:\Users\Jarvis\Desktop\PIC16f877a_coding\LCD_interfacing_4_bit\lcd.
                                 c"
  3672                           ; Parameters:    Size  Location     Type
  3673                           ;  x               1    wreg     unsigned char 
  3674                           ; Auto vars:     Size  Location     Type
  3675                           ;  x               1    1[COMMON] unsigned char 
  3676                           ;  i               2    2[COMMON] int 
  3677                           ; Return value:  Size  Location     Type
  3678                           ;		None               void
  3679                           ; Registers used:
  3680                           ;		wreg, status,2, status,0
  3681                           ; Tracked objects:
  3682                           ;		On entry : 0/0
  3683                           ;		On exit  : 0/0
  3684                           ;		Unchanged: 0/0
  3685                           ; Data sizes:     COMMON   BANK0   BANK1   BANK3   BANK2
  3686                           ;      Locals:         4       0       0       0       0
  3687                           ;      Temp:     1
  3688                           ;      Total:    4
  3689                           ; This function calls:
  3690                           ;		Nothing
  3691                           ; This function is called by:
  3692                           ;		_lcd_init
  3693                           ;		_lcd_pattern
  3694                           ;		_main
  3695                           ; This function uses a non-reentrant model
  3696                           ; 
  3697                           psect	text144
  3698                           	file	"C:\Users\Jarvis\Desktop\PIC16f877a_coding\LCD_interfacing_4_bit\lcd.c"
  3699                           	line	11
  3700                           	global	__size_of_lcd_command
  3701  0055                     	__size_of_lcd_command	equ	__end_of_lcd_command-_lcd_command
  3702                           ;lcd.c: 3: asm("\tpsect config,class=CONFIG,delta=2"); asm("\tdw ""0x3f3b");
  3703                           ;lcd.c: 10: void lcd_command(unsigned char x)
  3704                           ;lcd.c: 11: {int i=5000;
  3705                           	
  3706  00E2                     _lcd_command:	
  3707                           	opt stack 6
  3708                           ; Regs used in _lcd_command: [wreg+status,2+status,0]
  3709                           ;lcd_command@x stored from wreg
  3710  00E2  00F1               	movwf	(lcd_command@x)
  3711                           	
  3712  00E3                     l30000867:	
  3713  00E3  3088               	movlw	low(01388h)
  3714  00E4  00F2               	movwf	(lcd_command@i)
  3715  00E5  3013               	movlw	high(01388h)
  3716  00E6  00F3               	movwf	((lcd_command@i))+1
  3717                           	
  3718  00E7                     l30000868:	
  3719                           	line	12
  3720                           ;lcd.c: 12: PORTD=0xf0&x;
  3721  00E7  0871               	movf	(lcd_command@x),w
  3722  00E8  39F0               	andlw	0F0h
  3723  00E9  1283               	bcf	status, 5	;RP0=0, select bank0
  3724  00EA  1303               	bcf	status, 6	;RP1=0, select bank0
  3725  00EB  0088               	movwf	(8)	;volatile
  3726                           	
  3727  00EC                     l30000869:	
  3728                           	line	13
  3729                           ;lcd.c: 13: PORTD&=~(1<<0);
  3730  00EC  30FE               	movlw	(0FEh)
  3731  00ED  00F0               	movwf	(??_lcd_command+0+0)
  3732  00EE  0870               	movf	(??_lcd_command+0+0),w
  3733  00EF  0588               	andwf	(8),f	;volatile
  3734                           	
  3735  00F0                     l30000870:	
  3736                           	line	14
  3737                           ;lcd.c: 14: PORTD&=~(1<<1);
  3738  00F0  30FD               	movlw	(0FDh)
  3739  00F1  00F0               	movwf	(??_lcd_command+0+0)
  3740  00F2  0870               	movf	(??_lcd_command+0+0),w
  3741  00F3  0588               	andwf	(8),f	;volatile
  3742                           	
  3743  00F4                     l30000871:	
  3744                           	line	15
  3745                           ;lcd.c: 15: PORTD|=(1<<2);
  3746  00F4  1508               	bsf	(8)+(2/8),(2)&7	;volatile
  3747                           	
  3748  00F5                     l30000872:	
  3749                           	line	16
  3750  00F5  30FF               	movlw	low(-1)
  3751  00F6  07F2               	addwf	(lcd_command@i),f
  3752  00F7  1803               	skipnc
  3753  00F8  0AF3               	incf	(lcd_command@i+1),f
  3754  00F9  30FF               	movlw	high(-1)
  3755  00FA  07F3               	addwf	(lcd_command@i+1),f
  3756  00FB  30FF               	movlw	high(-1)
  3757  00FC  0673               	xorwf	((lcd_command@i+1))&07fh,w
  3758  00FD  1D03               	skipz
  3759  00FE  2901               	goto	u1965
  3760  00FF  30FF               	movlw	low(-1)
  3761  0100  0672               	xorwf	((lcd_command@i))&07fh,w
  3762  0101                     u1965:
  3763                           
  3764  0101  1D03               	skipz
  3765  0102  2904               	goto	u1961
  3766  0103  2905               	goto	u1960
  3767  0104                     u1961:
  3768  0104  28F5               	goto	l30000872
  3769  0105                     u1960:
  3770                           	
  3771  0105                     l30000873:	
  3772                           	line	17
  3773                           ;lcd.c: 17: PORTD&=~(1<<2);
  3774  0105  30FB               	movlw	(0FBh)
  3775  0106  00F0               	movwf	(??_lcd_command+0+0)
  3776  0107  0870               	movf	(??_lcd_command+0+0),w
  3777  0108  0588               	andwf	(8),f	;volatile
  3778                           	
  3779  0109                     l30000874:	
  3780                           	line	18
  3781                           ;lcd.c: 18: i=5000;
  3782  0109  3088               	movlw	low(01388h)
  3783  010A  00F2               	movwf	(lcd_command@i)
  3784  010B  3013               	movlw	high(01388h)
  3785  010C  00F3               	movwf	((lcd_command@i))+1
  3786                           	
  3787  010D                     l30000875:	
  3788                           	line	19
  3789                           ;lcd.c: 19: PORTD=(0x0f&x)<<4;
  3790  010D  0871               	movf	(lcd_command@x),w
  3791  010E  390F               	andlw	0Fh
  3792  010F  00F0               	movwf	(??_lcd_command+0+0)
  3793  0110  3003               	movlw	(04h)-1
  3794  0111                     u1975:
  3795  0111  1003               	clrc
  3796  0112  0DF0               	rlf	(??_lcd_command+0+0),f
  3797+ 0113  3EFF               	addlw	-1
  3798+ 0114  1D03               	skipz
  3799+ 0115  2911               	goto	u1975
  3800+ 0116  1003               	clrc
  3801+ 0117  0D70               	rlf	(??_lcd_command+0+0),w
  3802+ 0118  0088               	movwf	(8)	;volatile
  3803+                          	
  3804+ 0119                     l30000876:	
  3805+                          	line	20
  3806+                          ;lcd.c: 20: PORTD&=~(1<<0);
  3807+ 0119  30FE               	movlw	(0FEh)
  3808+ 011A  00F0               	movwf	(??_lcd_command+0+0)
  3809+ 011B  0870               	movf	(??_lcd_command+0+0),w
  3810+ 011C  0588               	andwf	(8),f	;volatile
  3811+                          	
  3812+ 011D                     l30000877:	
  3813+                          	line	21
  3814+                          ;lcd.c: 21: PORTD&=~(1<<1);
  3815+ 011D  30FD               	movlw	(0FDh)
  3816+ 011E  00F0               	movwf	(??_lcd_command+0+0)
  3817+ 011F  0870               	movf	(??_lcd_command+0+0),w
  3818+ 0120  0588               	andwf	(8),f	;volatile
  3819+                          	
  3820+ 0121                     l30000878:	
  3821+                          	line	22
  3822+                          ;lcd.c: 22: PORTD|=(1<<2);
  3823+ 0121  1508               	bsf	(8)+(2/8),(2)&7	;volatile
  3824+                          	
  3825+ 0122                     l30000879:	
  3826+                          	line	23
  3827+ 0122  30FF               	movlw	low(-1)
  3828+ 0123  07F2               	addwf	(lcd_command@i),f
  3829+ 0124  1803               	skipnc
  3830+ 0125  0AF3               	incf	(lcd_command@i+1),f
  3831+ 0126  30FF               	movlw	high(-1)
  3832+ 0127  07F3               	addwf	(lcd_command@i+1),f
  3833+ 0128  30FF               	movlw	high(-1)
  3834+ 0129  0673               	xorwf	((lcd_command@i+1))&07fh,w
  3835+ 012A  1D03               	skipz
  3836+ 012B  292E               	goto	u1985
  3837+ 012C  30FF               	movlw	low(-1)
  3838+ 012D  0672               	xorwf	((lcd_command@i))&07fh,w
  3839+ 012E                     u1985:
  3840+                          
  3841+ 012E  1D03               	skipz
  3842+ 012F  2931               	goto	u1981
  3843+ 0130  2932               	goto	u1980
  3844+ 0131                     u1981:
  3845+ 0131  2922               	goto	l30000879
  3846+ 0132                     u1980:
  3847+                          	
  3848+ 0132                     l30000880:	
  3849+                          	line	24
  3850+                          ;lcd.c: 24: PORTD&=~(1<<2);
  3851+ 0132  30FB               	movlw	(0FBh)
  3852+ 0133  00F0               	movwf	(??_lcd_command+0+0)
  3853+ 0134  0870               	movf	(??_lcd_command+0+0),w
  3854+ 0135  0588               	andwf	(8),f	;volatile
  3855+                          	
  3856+ 0136                     l1:	
  3857+ 0136  0008               	return
  3858+                          	opt stack 0
  3859+                          GLOBAL	__end_of_lcd_command
  3860+ 0137                     	__end_of_lcd_command:
  3861+                          ; =============== function _lcd_command ends ============
  3862+                          
  3863+                          psect	text145,local,class=CODE,delta=2
  3864+                          global __ptext145
  3865+ 0093                     __ptext145:
  3866+                          	line	25
  3867+                          	signat	_lcd_command,4216
  3868+                          	global	_lcd_data
  3869+                          
  3870+                          ; *************** function _lcd_data *****************
  3871+                          ; Defined at:
  3872+                          ;		line 27 in file "C:\Users\Jarvis\Desktop\PIC16f877a_coding\LCD_interfacing_4_bit\lcd.
      +                          c"
  3873+                          ; Parameters:    Size  Location     Type
  3874+                          ;  x               1    wreg     unsigned char 
  3875+                          ; Auto vars:     Size  Location     Type
  3876+                          ;  x               1    1[COMMON] unsigned char 
  3877+                          ;  i               2    2[COMMON] int 
  3878+                          ; Return value:  Size  Location     Type
  3879+                          ;		None               void
  3880+                          ; Registers used:
  3881+                          ;		wreg, status,2, status,0
  3882+                          ; Tracked objects:
  3883+                          ;		On entry : 0/0
  3884+                          ;		On exit  : 0/0
  3885+                          ;		Unchanged: 0/0
  3886+                          ; Data sizes:     COMMON   BANK0   BANK1   BANK3   BANK2
  3887+                          ;      Locals:         4       0       0       0       0
  3888+                          ;      Temp:     1
  3889+                          ;      Total:    4
  3890+                          ; This function calls:
  3891+                          ;		Nothing
  3892+                          ; This function is called by:
  3893+                          ;		_lcd_init
  3894+                          ;		_lcd_integer
  3895+                          ;		_lcd_float
  3896+                          ;		_lcd_pattern
  3897+                          ;		_main
  3898+                          ; This function uses a non-reentrant model
  3899+                          ; 
  3900+                          psect	text145
  3901+                          	file	"C:\Users\Jarvis\Desktop\PIC16f877a_coding\LCD_interfacing_4_bit\lcd.c"
  3902+                          	line	27
  3903+                          	global	__size_of_lcd_data
  3904+ 004F                     	__size_of_lcd_data	equ	__end_of_lcd_data-_lcd_data
  3905+                          ;lcd.c: 26: void lcd_data(unsigned char x)
  3906+                          ;lcd.c: 27: {int i=5000;
  3907+                          	
  3908+ 0093                     _lcd_data:	
  3909+                          	opt stack 5
  3910+                          ; Regs used in _lcd_data: [wreg+status,2+status,0]
  3911+                          ;lcd_data@x stored from wreg
  3912+ 0093  00F1               	movwf	(lcd_data@x)
  3913+                          	
  3914+ 0094                     l30000929:	
  3915+ 0094  3088               	movlw	low(01388h)
  3916+ 0095  00F2               	movwf	(lcd_data@i)
  3917+ 0096  3013               	movlw	high(01388h)
  3918+ 0097  00F3               	movwf	((lcd_data@i))+1
  3919+                          	
  3920+ 0098                     l30000930:	
  3921+                          	line	28
  3922+                          ;lcd.c: 28: PORTD=0xf0&x;
  3923+ 0098  0871               	movf	(lcd_data@x),w
  3924+ 0099  39F0               	andlw	0F0h
  3925+ 009A  1283               	bcf	status, 5	;RP0=0, select bank0
  3926+ 009B  1303               	bcf	status, 6	;RP1=0, select bank0
  3927+ 009C  0088               	movwf	(8)	;volatile
  3928+                          	
  3929+ 009D                     l30000931:	
  3930+                          	line	29
  3931+                          ;lcd.c: 29: PORTD|=(1<<0);
  3932+ 009D  1408               	bsf	(8)+(0/8),(0)&7	;volatile
  3933+                          	
  3934+ 009E                     l30000932:	
  3935+                          	line	30
  3936+                          ;lcd.c: 30: PORTD&=~(1<<1);
  3937+ 009E  30FD               	movlw	(0FDh)
  3938+ 009F  00F0               	movwf	(??_lcd_data+0+0)
  3939+ 00A0  0870               	movf	(??_lcd_data+0+0),w
  3940+ 00A1  0588               	andwf	(8),f	;volatile
  3941+                          	
  3942+ 00A2                     l30000933:	
  3943+                          	line	31
  3944+                          ;lcd.c: 31: PORTD|=(1<<2);
  3945+ 00A2  1508               	bsf	(8)+(2/8),(2)&7	;volatile
  3946+                          	
  3947+ 00A3                     l30000934:	
  3948+                          	line	32
  3949+ 00A3  30FF               	movlw	low(-1)
  3950+ 00A4  07F2               	addwf	(lcd_data@i),f
  3951+ 00A5  1803               	skipnc
  3952+ 00A6  0AF3               	incf	(lcd_data@i+1),f
  3953+ 00A7  30FF               	movlw	high(-1)
  3954+ 00A8  07F3               	addwf	(lcd_data@i+1),f
  3955+ 00A9  30FF               	movlw	high(-1)
  3956+ 00AA  0673               	xorwf	((lcd_data@i+1))&07fh,w
  3957+ 00AB  1D03               	skipz
  3958+ 00AC  28AF               	goto	u2125
  3959+ 00AD  30FF               	movlw	low(-1)
  3960+ 00AE  0672               	xorwf	((lcd_data@i))&07fh,w
  3961+ 00AF                     u2125:
  3962+                          
  3963+ 00AF  1D03               	skipz
  3964+ 00B0  28B2               	goto	u2121
  3965+ 00B1  28B3               	goto	u2120
  3966+ 00B2                     u2121:
  3967+ 00B2  28A3               	goto	l30000934
  3968+ 00B3                     u2120:
  3969+                          	
  3970+ 00B3                     l30000935:	
  3971+                          	line	33
  3972+                          ;lcd.c: 33: PORTD&=~(1<<2);
  3973+ 00B3  30FB               	movlw	(0FBh)
  3974+ 00B4  00F0               	movwf	(??_lcd_data+0+0)
  3975+ 00B5  0870               	movf	(??_lcd_data+0+0),w
  3976+ 00B6  0588               	andwf	(8),f	;volatile
  3977+                          	
  3978+ 00B7                     l30000936:	
  3979+                          	line	34
  3980+                          ;lcd.c: 34: i=5000;
  3981+ 00B7  3088               	movlw	low(01388h)
  3982+ 00B8  00F2               	movwf	(lcd_data@i)
  3983+ 00B9  3013               	movlw	high(01388h)
  3984+ 00BA  00F3               	movwf	((lcd_data@i))+1
  3985+                          	
  3986+ 00BB                     l30000937:	
  3987+                          	line	35
  3988+                          ;lcd.c: 35: PORTD=(0x0f&x)<<4;
  3989+ 00BB  0871               	movf	(lcd_data@x),w
  3990+ 00BC  390F               	andlw	0Fh
  3991+ 00BD  00F0               	movwf	(??_lcd_data+0+0)
  3992+ 00BE  3003               	movlw	(04h)-1
  3993+ 00BF                     u2135:
  3994+ 00BF  1003               	clrc
  3995+ 00C0  0DF0               	rlf	(??_lcd_data+0+0),f
  3996+ 00C1  3EFF               	addlw	-1
  3997+ 00C2  1D03               	skipz
  3998+ 00C3  28BF               	goto	u2135
  3999+ 00C4  1003               	clrc
  4000+ 00C5  0D70               	rlf	(??_lcd_data+0+0),w
  4001+ 00C6  0088               	movwf	(8)	;volatile
  4002+                          	
  4003+ 00C7                     l30000938:	
  4004+                          	line	36
  4005+                          ;lcd.c: 36: PORTD|=(1<<0);
  4006+ 00C7  1408               	bsf	(8)+(0/8),(0)&7	;volatile
  4007+                          	
  4008+ 00C8                     l30000939:	
  4009+                          	line	37
  4010+                          ;lcd.c: 37: PORTD&=~(1<<1);
  4011+ 00C8  30FD               	movlw	(0FDh)
  4012+ 00C9  00F0               	movwf	(??_lcd_data+0+0)
  4013+ 00CA  0870               	movf	(??_lcd_data+0+0),w
  4014+ 00CB  0588               	andwf	(8),f	;volatile
  4015+                          	
  4016+ 00CC                     l30000940:	
  4017+                          	line	38
  4018+                          ;lcd.c: 38: PORTD|=(1<<2);
  4019+ 00CC  1508               	bsf	(8)+(2/8),(2)&7	;volatile
  4020+                          	
  4021+ 00CD                     l30000941:	
  4022+                          	line	39
  4023+ 00CD  30FF               	movlw	low(-1)
  4024+ 00CE  07F2               	addwf	(lcd_data@i),f
  4025+ 00CF  1803               	skipnc
  4026+ 00D0  0AF3               	incf	(lcd_data@i+1),f
  4027+ 00D1  30FF               	movlw	high(-1)
  4028+ 00D2  07F3               	addwf	(lcd_data@i+1),f
  4029+ 00D3  30FF               	movlw	high(-1)
  4030+ 00D4  0673               	xorwf	((lcd_data@i+1))&07fh,w
  4031+ 00D5  1D03               	skipz
  4032+ 00D6  28D9               	goto	u2145
  4033+ 00D7  30FF               	movlw	low(-1)
  4034+ 00D8  0672               	xorwf	((lcd_data@i))&07fh,w
  4035+ 00D9                     u2145:
  4036+                          
  4037+ 00D9  1D03               	skipz
  4038+ 00DA  28DC               	goto	u2141
  4039+ 00DB  28DD               	goto	u2140
  4040+ 00DC                     u2141:
  4041+ 00DC  28CD               	goto	l30000941
  4042+ 00DD                     u2140:
  4043+                          	
  4044+ 00DD                     l30000942:	
  4045+                          	line	40
  4046+                          ;lcd.c: 40: PORTD&=~(1<<2);
  4047+ 00DD  30FB               	movlw	(0FBh)
  4048+ 00DE  00F0               	movwf	(??_lcd_data+0+0)
  4049+ 00DF  0870               	movf	(??_lcd_data+0+0),w
  4050+ 00E0  0588               	andwf	(8),f	;volatile
  4051+                          	
  4052+ 00E1                     l8:	
  4053+ 00E1  0008               	return
  4054+                          	opt stack 0
  4055+                          GLOBAL	__end_of_lcd_data
  4056+ 00E2                     	__end_of_lcd_data:
  4057+                          ; =============== function _lcd_data ends ============
  4058+                          
  4059+                          psect	text146,local,class=CODE,delta=2
  4060+                          global __ptext146
  4061+ 0237                     __ptext146:
  4062+                          	line	41
  4063+                          	signat	_lcd_data,4216
  4064+                          	global	___aldiv
  4065+                          
  4066+                          ; *************** function ___aldiv *****************
  4067+                          ; Defined at:
  4068+                          ;		line 5 in file "C:\Program Files (x86)\HI-TECH Software\PICC\9.70\sources\aldiv.c"
  4069+                          ; Parameters:    Size  Location     Type
  4070+                          ;  dividend        4    6[BANK0 ] long 
  4071+                          ;  divisor         4   10[BANK0 ] long 
  4072+                          ; Auto vars:     Size  Location     Type
  4073+                          ;  quotient        4    2[BANK0 ] long 
  4074+                          ;  sign            1    1[BANK0 ] unsigned char 
  4075+                          ;  counter         1    0[BANK0 ] unsigned char 
  4076+                          ; Return value:  Size  Location     Type
  4077+                          ;                  4    6[BANK0 ] long 
  4078+                          ; Registers used:
  4079+                          ;		wreg, status,2, status,0
  4080+                          ; Tracked objects:
  4081+                          ;		On entry : 0/0
  4082+                          ;		On exit  : 0/0
  4083+                          ;		Unchanged: 0/0
  4084+                          ; Data sizes:     COMMON   BANK0   BANK1   BANK3   BANK2
  4085+                          ;      Locals:         1      14       0       0       0
  4086+                          ;      Temp:     1
  4087+                          ;      Total:   15
  4088+                          ; This function calls:
  4089+                          ;		Nothing
  4090+                          ; This function is called by:
  4091+                          ;		_lcd_integer
  4092+                          ; This function uses a non-reentrant model
  4093+                          ; 
  4094+                          psect	text146
  4095+                          	file	"C:\Program Files (x86)\HI-TECH Software\PICC\9.70\sources\aldiv.c"
  4096+                          	line	5
  4097+                          	global	__size_of___aldiv
  4098+ 00A2                     	__size_of___aldiv	equ	__end_of___aldiv-___aldiv
  4099+                          	
  4100+ 0237                     ___aldiv:	
  4101+                          	opt stack 5
  4102+                          ; Regs used in ___aldiv: [wreg+status,2+status,0]
  4103+                          	line	9
  4104+                          	
  4105+ 0237                     l30000973:	
  4106+ 0237  1003               	clrc
  4107+ 0238  3000               	movlw	0
  4108+ 0239  1803               	btfsc	status,0
  4109+ 023A  3001               	movlw	1
  4110+ 023B  1283               	bcf	status, 5	;RP0=0, select bank0
  4111+ 023C  1303               	bcf	status, 6	;RP1=0, select bank0
  4112+ 023D  00A1               	movwf	(___aldiv@sign)
  4113+                          	
  4114+ 023E                     l30000974:	
  4115+                          	line	10
  4116+ 023E  1FAD               	btfss	(___aldiv@divisor+3),7
  4117+ 023F  2A41               	goto	u2251
  4118+ 0240  2A42               	goto	u2250
  4119+ 0241                     u2251:
  4120+ 0241  2A50               	goto	l30000977
  4121+ 0242                     u2250:
  4122+                          	
  4123+ 0242                     l30000975:	
  4124+                          	line	11
  4125+ 0242  09AA               	comf	(___aldiv@divisor),f
  4126+ 0243  09AB               	comf	(___aldiv@divisor+1),f
  4127+ 0244  09AC               	comf	(___aldiv@divisor+2),f
  4128+ 0245  09AD               	comf	(___aldiv@divisor+3),f
  4129+ 0246  0AAA               	incf	(___aldiv@divisor),f
  4130+ 0247  1903               	skipnz
  4131+ 0248  0AAB               	incf	(___aldiv@divisor+1),f
  4132+ 0249  1903               	skipnz
  4133+ 024A  0AAC               	incf	(___aldiv@divisor+2),f
  4134+ 024B  1903               	skipnz
  4135+ 024C  0AAD               	incf	(___aldiv@divisor+3),f
  4136+                          	
  4137+ 024D                     l30000976:	
  4138+                          	line	12
  4139+ 024D  01A1               	clrf	(___aldiv@sign)
  4140+ 024E  1403               	bsf	status,0
  4141+ 024F  0DA1               	rlf	(___aldiv@sign),f
  4142+                          	
  4143+ 0250                     l30000977:	
  4144+                          	line	14
  4145+ 0250  1FA9               	btfss	(___aldiv@dividend+3),7
  4146+ 0251  2A53               	goto	u2261
  4147+ 0252  2A54               	goto	u2260
  4148+ 0253                     u2261:
  4149+ 0253  2A63               	goto	l30000980
  4150+ 0254                     u2260:
  4151+                          	
  4152+ 0254                     l30000978:	
  4153+                          	line	15
  4154+ 0254  09A6               	comf	(___aldiv@dividend),f
  4155+ 0255  09A7               	comf	(___aldiv@dividend+1),f
  4156+ 0256  09A8               	comf	(___aldiv@dividend+2),f
  4157+ 0257  09A9               	comf	(___aldiv@dividend+3),f
  4158+ 0258  0AA6               	incf	(___aldiv@dividend),f
  4159+ 0259  1903               	skipnz
  4160+ 025A  0AA7               	incf	(___aldiv@dividend+1),f
  4161+ 025B  1903               	skipnz
  4162+ 025C  0AA8               	incf	(___aldiv@dividend+2),f
  4163+ 025D  1903               	skipnz
  4164+ 025E  0AA9               	incf	(___aldiv@dividend+3),f
  4165+                          	
  4166+ 025F                     l30000979:	
  4167+                          	line	16
  4168+ 025F  3001               	movlw	(01h)
  4169+ 0260  00F0               	movwf	(??___aldiv+0+0)
  4170+ 0261  0870               	movf	(??___aldiv+0+0),w
  4171+ 0262  06A1               	xorwf	(___aldiv@sign),f
  4172+                          	
  4173+ 0263                     l30000980:	
  4174+                          	line	18
  4175+ 0263  3000               	movlw	0
  4176+ 0264  00A5               	movwf	(___aldiv@quotient+3)
  4177+ 0265  3000               	movlw	0
  4178+ 0266  00A4               	movwf	(___aldiv@quotient+2)
  4179+ 0267  3000               	movlw	0
  4180+ 0268  00A3               	movwf	(___aldiv@quotient+1)
  4181+ 0269  3000               	movlw	0
  4182+ 026A  00A2               	movwf	(___aldiv@quotient)
  4183+                          
  4184+                          	
  4185+ 026B                     l30000981:	
  4186+                          	line	19
  4187+ 026B  082D               	movf	(___aldiv@divisor+3),w
  4188+ 026C  042C               	iorwf	(___aldiv@divisor+2),w
  4189+ 026D  042B               	iorwf	(___aldiv@divisor+1),w
  4190+ 026E  042A               	iorwf	(___aldiv@divisor),w
  4191+ 026F  1903               	skipnz
  4192+ 0270  2A72               	goto	u2271
  4193+ 0271  2A73               	goto	u2270
  4194+ 0272                     u2271:
  4195+ 0272  2AC1               	goto	l30000991
  4196+ 0273                     u2270:
  4197+                          	
  4198+ 0273                     l30000982:	
  4199+                          	line	20
  4200+ 0273  01A0               	clrf	(___aldiv@counter)
  4201+ 0274  1403               	bsf	status,0
  4202+ 0275  0DA0               	rlf	(___aldiv@counter),f
  4203+ 0276  2A84               	goto	l30000984
  4204+                          	
  4205+ 0277                     l30000983:	
  4206+                          	line	22
  4207+ 0277  3001               	movlw	01h
  4208+ 0278  00F0               	movwf	(??___aldiv+0+0)
  4209+ 0279                     u2285:
  4210+ 0279  1003               	clrc
  4211+ 027A  0DAA               	rlf	(___aldiv@divisor),f
  4212+ 027B  0DAB               	rlf	(___aldiv@divisor+1),f
  4213+ 027C  0DAC               	rlf	(___aldiv@divisor+2),f
  4214+ 027D  0DAD               	rlf	(___aldiv@divisor+3),f
  4215+ 027E  0BF0               	decfsz	(??___aldiv+0+0)
  4216+ 027F  2A79               	goto	u2285
  4217+                          	line	23
  4218+ 0280  3001               	movlw	(01h)
  4219+ 0281  00F0               	movwf	(??___aldiv+0+0)
  4220+ 0282  0870               	movf	(??___aldiv+0+0),w
  4221+ 0283  07A0               	addwf	(___aldiv@counter),f
  4222+                          	
  4223+ 0284                     l30000984:	
  4224+                          	line	21
  4225+ 0284  1FAD               	btfss	(___aldiv@divisor+3),(31)&7
  4226+ 0285  2A87               	goto	u2291
  4227+ 0286  2A88               	goto	u2290
  4228+ 0287                     u2291:
  4229+ 0287  2A77               	goto	l30000983
  4230+ 0288                     u2290:
  4231+                          	
  4232+ 0288                     l30000985:	
  4233+                          	line	26
  4234+ 0288  3001               	movlw	01h
  4235+ 0289  00F0               	movwf	(??___aldiv+0+0)
  4236+ 028A                     u2305:
  4237+ 028A  1003               	clrc
  4238+ 028B  0DA2               	rlf	(___aldiv@quotient),f
  4239+ 028C  0DA3               	rlf	(___aldiv@quotient+1),f
  4240+ 028D  0DA4               	rlf	(___aldiv@quotient+2),f
  4241+ 028E  0DA5               	rlf	(___aldiv@quotient+3),f
  4242+ 028F  0BF0               	decfsz	(??___aldiv+0+0)
  4243+ 0290  2A8A               	goto	u2305
  4244+                          	
  4245+ 0291                     l30000986:	
  4246+                          	line	27
  4247+ 0291  082D               	movf	(___aldiv@divisor+3),w
  4248+ 0292  0229               	subwf	(___aldiv@dividend+3),w
  4249+ 0293  1D03               	skipz
  4250+ 0294  2A9F               	goto	u2315
  4251+ 0295  082C               	movf	(___aldiv@divisor+2),w
  4252+ 0296  0228               	subwf	(___aldiv@dividend+2),w
  4253+ 0297  1D03               	skipz
  4254+ 0298  2A9F               	goto	u2315
  4255+ 0299  082B               	movf	(___aldiv@divisor+1),w
  4256+ 029A  0227               	subwf	(___aldiv@dividend+1),w
  4257+ 029B  1D03               	skipz
  4258+ 029C  2A9F               	goto	u2315
  4259+ 029D  082A               	movf	(___aldiv@divisor),w
  4260+ 029E  0226               	subwf	(___aldiv@dividend),w
  4261+ 029F                     u2315:
  4262+ 029F  1C03               	skipc
  4263+ 02A0  2AA2               	goto	u2311
  4264+ 02A1  2AA3               	goto	u2310
  4265+ 02A2                     u2311:
  4266+ 02A2  2AB2               	goto	l30000989
  4267+ 02A3                     u2310:
  4268+                          	
  4269+ 02A3                     l30000987:	
  4270+                          	line	28
  4271+ 02A3  082A               	movf	(___aldiv@divisor),w
  4272+ 02A4  02A6               	subwf	(___aldiv@dividend),f
  4273+ 02A5  082B               	movf	(___aldiv@divisor+1),w
  4274+ 02A6  1C03               	skipc
  4275+ 02A7  0F2B               	incfsz	(___aldiv@divisor+1),w
  4276+ 02A8  02A7               	subwf	(___aldiv@dividend+1),f
  4277+ 02A9  082C               	movf	(___aldiv@divisor+2),w
  4278+ 02AA  1C03               	skipc
  4279+ 02AB  0F2C               	incfsz	(___aldiv@divisor+2),w
  4280+ 02AC  02A8               	subwf	(___aldiv@dividend+2),f
  4281  02AD  082D               	movf	(___aldiv@divisor+3),w
  4282  02AE  1C03               	skipc
  4283  02AF  0F2D               	incfsz	(___aldiv@divisor+3),w
  4284  02B0  02A9               	subwf	(___aldiv@dividend+3),f
  4285                           	
  4286  02B1                     l30000988:	
  4287                           	line	29
  4288  02B1  1422               	bsf	(___aldiv@quotient)+(0/8),(0)&7
  4289                           	
  4290  02B2                     l30000989:	
  4291                           	line	31
  4292  02B2  3001               	movlw	01h
  4293  02B3                     u2325:
  4294  02B3  1003               	clrc
  4295  02B4  0CAD               	rrf	(___aldiv@divisor+3),f
  4296  02B5  0CAC               	rrf	(___aldiv@divisor+2),f
  4297  02B6  0CAB               	rrf	(___aldiv@divisor+1),f
  4298  02B7  0CAA               	rrf	(___aldiv@divisor),f
  4299  02B8  3EFF               	addlw	-1
  4300  02B9  1D03               	skipz
  4301  02BA  2AB3               	goto	u2325
  4302                           
  4303                           	
  4304  02BB                     l30000990:	
  4305                           	line	32
  4306  02BB  3001               	movlw	low(01h)
  4307  02BC  02A0               	subwf	(___aldiv@counter),f
  4308  02BD  1D03               	btfss	status,2
  4309  02BE  2AC0               	goto	u2331
  4310  02BF  2AC1               	goto	u2330
  4311  02C0                     u2331:
  4312  02C0  2A88               	goto	l30000985
  4313  02C1                     u2330:
  4314                           	
  4315  02C1                     l30000991:	
  4316                           	line	34
  4317  02C1  0821               	movf	(___aldiv@sign),w
  4318  02C2  1D03               	skipz
  4319  02C3  2AC5               	goto	u2340
  4320  02C4  2AD0               	goto	l30000993
  4321  02C5                     u2340:
  4322                           	
  4323  02C5                     l30000992:	
  4324                           	line	35
  4325  02C5  09A2               	comf	(___aldiv@quotient),f
  4326  02C6  09A3               	comf	(___aldiv@quotient+1),f
  4327  02C7  09A4               	comf	(___aldiv@quotient+2),f
  4328  02C8  09A5               	comf	(___aldiv@quotient+3),f
  4329  02C9  0AA2               	incf	(___aldiv@quotient),f
  4330  02CA  1903               	skipnz
  4331  02CB  0AA3               	incf	(___aldiv@quotient+1),f
  4332  02CC  1903               	skipnz
  4333  02CD  0AA4               	incf	(___aldiv@quotient+2),f
  4334  02CE  1903               	skipnz
  4335  02CF  0AA5               	incf	(___aldiv@quotient+3),f
  4336                           	
  4337  02D0                     l30000993:	
  4338                           	line	36
  4339  02D0  0825               	movf	(___aldiv@quotient+3),w
  4340  02D1  00A9               	movwf	(?___aldiv+3)
  4341  02D2  0824               	movf	(___aldiv@quotient+2),w
  4342  02D3  00A8               	movwf	(?___aldiv+2)
  4343  02D4  0823               	movf	(___aldiv@quotient+1),w
  4344  02D5  00A7               	movwf	(?___aldiv+1)
  4345  02D6  0822               	movf	(___aldiv@quotient),w
  4346  02D7  00A6               	movwf	(?___aldiv)
  4347                           
  4348                           	
  4349  02D8                     l253:	
  4350  02D8  0008               	return
  4351                           	opt stack 0
  4352                           GLOBAL	__end_of___aldiv
  4353  02D9                     	__end_of___aldiv:
  4354                           ; =============== function ___aldiv ends ============
  4355                           
  4356                           psect	text147,local,class=CODE,delta=2
  4357                           global __ptext147
  4358  0FB8                     __ptext147:
  4359                           	line	37
  4360                           	signat	___aldiv,8316
  4361                           	global	___lmul
  4362                           
  4363                           ; *************** function ___lmul *****************
  4364                           ; Defined at:
  4365                           ;		line 3 in file "C:\Program Files (x86)\HI-TECH Software\PICC\9.70\sources\lmul.c"
  4366                           ; Parameters:    Size  Location     Type
  4367                           ;  multiplier      4    0[BANK0 ] unsigned long 
  4368                           ;  multiplicand    4    4[BANK0 ] unsigned long 
  4369                           ; Auto vars:     Size  Location     Type
  4370                           ;  product         4    1[COMMON] unsigned long 
  4371                           ; Return value:  Size  Location     Type
  4372                           ;                  4    0[BANK0 ] unsigned long 
  4373                           ; Registers used:
  4374                           ;		wreg, status,2, status,0
  4375                           ; Tracked objects:
  4376                           ;		On entry : 0/0
  4377                           ;		On exit  : 0/0
  4378                           ;		Unchanged: 0/0
  4379                           ; Data sizes:     COMMON   BANK0   BANK1   BANK3   BANK2
  4380                           ;      Locals:         5       8       0       0       0
  4381                           ;      Temp:     1
  4382                           ;      Total:   13
  4383                           ; This function calls:
  4384                           ;		Nothing
  4385                           ; This function is called by:
  4386                           ;		_lcd_integer
  4387                           ; This function uses a non-reentrant model
  4388                           ; 
  4389                           psect	text147
  4390                           	file	"C:\Program Files (x86)\HI-TECH Software\PICC\9.70\sources\lmul.c"
  4391                           	line	3
  4392                           	global	__size_of___lmul
  4393  0048                     	__size_of___lmul	equ	__end_of___lmul-___lmul
  4394                           	
  4395  0FB8                     ___lmul:	
  4396                           	opt stack 5
  4397                           ; Regs used in ___lmul: [wreg+status,2+status,0]
  4398                           	line	4
  4399                           	
  4400  0FB8                     l30000995:	
  4401  0FB8  3000               	movlw	0
  4402  0FB9  00F4               	movwf	(___lmul@product+3)
  4403  0FBA  3000               	movlw	0
  4404  0FBB  00F3               	movwf	(___lmul@product+2)
  4405  0FBC  3000               	movlw	0
  4406  0FBD  00F2               	movwf	(___lmul@product+1)
  4407  0FBE  3000               	movlw	0
  4408  0FBF  00F1               	movwf	(___lmul@product)
  4409                           
  4410                           	
  4411  0FC0                     l30000996:	
  4412                           	line	7
  4413  0FC0  1283               	bcf	status, 5	;RP0=0, select bank0
  4414  0FC1  1303               	bcf	status, 6	;RP1=0, select bank0
  4415  0FC2  1C20               	btfss	(___lmul@multiplier),(0)&7
  4416  0FC3  2FC5               	goto	u2351
  4417  0FC4  2FC6               	goto	u2350
  4418  0FC5                     u2351:
  4419  0FC5  2FDD               	goto	l30000998
  4420  0FC6                     u2350:
  4421                           	
  4422  0FC6                     l30000997:	
  4423                           	line	8
  4424  0FC6  0824               	movf	(___lmul@multiplicand),w
  4425  0FC7  07F1               	addwf	(___lmul@product),f
  4426  0FC8  0825               	movf	(___lmul@multiplicand+1),w
  4427  0FC9  1103               	clrz
  4428  0FCA  1803               	skipnc
  4429  0FCB  3E01               	addlw	1
  4430  0FCC  1903               	skipnz
  4431  0FCD  2FCF               	goto	u2361
  4432  0FCE  07F2               	addwf	(___lmul@product+1),f
  4433  0FCF                     u2361:
  4434  0FCF  0826               	movf	(___lmul@multiplicand+2),w
  4435  0FD0  1103               	clrz
  4436  0FD1  1803               	skipnc
  4437  0FD2  3E01               	addlw	1
  4438  0FD3  1903               	skipnz
  4439  0FD4  2FD6               	goto	u2362
  4440  0FD5  07F3               	addwf	(___lmul@product+2),f
  4441  0FD6                     u2362:
  4442  0FD6  0827               	movf	(___lmul@multiplicand+3),w
  4443  0FD7  1103               	clrz
  4444  0FD8  1803               	skipnc
  4445  0FD9  3E01               	addlw	1
  4446  0FDA  1903               	skipnz
  4447  0FDB  2FDD               	goto	u2363
  4448  0FDC  07F4               	addwf	(___lmul@product+3),f
  4449  0FDD                     u2363:
  4450                           
  4451                           	
  4452  0FDD                     l30000998:	
  4453                           	line	9
  4454  0FDD  3001               	movlw	01h
  4455  0FDE  00F0               	movwf	(??___lmul+0+0)
  4456  0FDF                     u2375:
  4457  0FDF  1003               	clrc
  4458  0FE0  0DA4               	rlf	(___lmul@multiplicand),f
  4459  0FE1  0DA5               	rlf	(___lmul@multiplicand+1),f
  4460  0FE2  0DA6               	rlf	(___lmul@multiplicand+2),f
  4461  0FE3  0DA7               	rlf	(___lmul@multiplicand+3),f
  4462  0FE4  0BF0               	decfsz	(??___lmul+0+0)
  4463  0FE5  2FDF               	goto	u2375
  4464                           	
  4465  0FE6                     l30000999:	
  4466                           	line	10
  4467  0FE6  3001               	movlw	01h
  4468  0FE7                     u2385:
  4469  0FE7  1003               	clrc
  4470  0FE8  0CA3               	rrf	(___lmul@multiplier+3),f
  4471  0FE9  0CA2               	rrf	(___lmul@multiplier+2),f
  4472  0FEA  0CA1               	rrf	(___lmul@multiplier+1),f
  4473  0FEB  0CA0               	rrf	(___lmul@multiplier),f
  4474  0FEC  3EFF               	addlw	-1
  4475  0FED  1D03               	skipz
  4476  0FEE  2FE7               	goto	u2385
  4477                           
  4478                           	line	11
  4479  0FEF  0823               	movf	(___lmul@multiplier+3),w
  4480  0FF0  0422               	iorwf	(___lmul@multiplier+2),w
  4481  0FF1  0421               	iorwf	(___lmul@multiplier+1),w
  4482  0FF2  0420               	iorwf	(___lmul@multiplier),w
  4483  0FF3  1D03               	skipz
  4484  0FF4  2FF6               	goto	u2391
  4485  0FF5  2FF7               	goto	u2390
  4486  0FF6                     u2391:
  4487  0FF6  2FC0               	goto	l30000996
  4488  0FF7                     u2390:
  4489                           	
  4490  0FF7                     l30001000:	
  4491                           	line	12
  4492  0FF7  0874               	movf	(___lmul@product+3),w
  4493  0FF8  00A3               	movwf	(?___lmul+3)
  4494  0FF9  0873               	movf	(___lmul@product+2),w
  4495  0FFA  00A2               	movwf	(?___lmul+2)
  4496  0FFB  0872               	movf	(___lmul@product+1),w
  4497  0FFC  00A1               	movwf	(?___lmul+1)
  4498  0FFD  0871               	movf	(___lmul@product),w
  4499  0FFE  00A0               	movwf	(?___lmul)
  4500                           
  4501                           	
  4502  0FFF                     l101:	
  4503  0FFF  0008               	return
  4504                           	opt stack 0
  4505                           GLOBAL	__end_of___lmul
  4506  1000                     	__end_of___lmul:
  4507                           ; =============== function ___lmul ends ============
  4508                           
  4509                           psect	text148,local,class=CODE,delta=2
  4510                           global __ptext148
  4511  01B3                     __ptext148:
  4512                           	line	13
  4513                           	signat	___lmul,8316
  4514                           	global	___almod
  4515                           
  4516                           ; *************** function ___almod *****************
  4517                           ; Defined at:
  4518                           ;		line 5 in file "C:\Program Files (x86)\HI-TECH Software\PICC\9.70\sources\almod.c"
  4519                           ; Parameters:    Size  Location     Type
  4520                           ;  dividend        4    0[BANK0 ] long 
  4521                           ;  divisor         4    4[BANK0 ] long 
  4522                           ; Auto vars:     Size  Location     Type
  4523                           ;  sign            1    1[COMMON] unsigned char 
  4524                           ;  counter         1    2[COMMON] unsigned char 
  4525                           ; Return value:  Size  Location     Type
  4526                           ;                  4    0[BANK0 ] long 
  4527                           ; Registers used:
  4528                           ;		wreg, status,2, status,0
  4529                           ; Tracked objects:
  4530                           ;		On entry : 0/0
  4531                           ;		On exit  : 0/0
  4532                           ;		Unchanged: 0/0
  4533                           ; Data sizes:     COMMON   BANK0   BANK1   BANK3   BANK2
  4534                           ;      Locals:         3       8       0       0       0
  4535                           ;      Temp:     1
  4536                           ;      Total:   11
  4537                           ; This function calls:
  4538                           ;		Nothing
  4539                           ; This function is called by:
  4540                           ;		_lcd_integer
  4541                           ; This function uses a non-reentrant model
  4542                           ; 
  4543                           psect	text148
  4544                           	file	"C:\Program Files (x86)\HI-TECH Software\PICC\9.70\sources\almod.c"
  4545                           	line	5
  4546                           	global	__size_of___almod
  4547  0084                     	__size_of___almod	equ	__end_of___almod-___almod
  4548                           	
  4549  01B3                     ___almod:	
  4550                           	opt stack 5
  4551                           ; Regs used in ___almod: [wreg+status,2+status,0]
  4552                           	line	8
  4553                           	
  4554  01B3                     l30000957:	
  4555  01B3  1003               	clrc
  4556  01B4  3000               	movlw	0
  4557  01B5  1803               	btfsc	status,0
  4558  01B6  3001               	movlw	1
  4559  01B7  00F1               	movwf	(___almod@sign)
  4560                           	
  4561  01B8                     l30000958:	
  4562                           	line	9
  4563  01B8  1283               	bcf	status, 5	;RP0=0, select bank0
  4564  01B9  1303               	bcf	status, 6	;RP1=0, select bank0
  4565  01BA  1FA3               	btfss	(___almod@dividend+3),7
  4566  01BB  29BD               	goto	u2161
  4567  01BC  29BE               	goto	u2160
  4568  01BD                     u2161:
  4569  01BD  29CC               	goto	l30000961
  4570  01BE                     u2160:
  4571                           	
  4572  01BE                     l30000959:	
  4573                           	line	10
  4574  01BE  09A0               	comf	(___almod@dividend),f
  4575  01BF  09A1               	comf	(___almod@dividend+1),f
  4576  01C0  09A2               	comf	(___almod@dividend+2),f
  4577  01C1  09A3               	comf	(___almod@dividend+3),f
  4578  01C2  0AA0               	incf	(___almod@dividend),f
  4579  01C3  1903               	skipnz
  4580  01C4  0AA1               	incf	(___almod@dividend+1),f
  4581  01C5  1903               	skipnz
  4582  01C6  0AA2               	incf	(___almod@dividend+2),f
  4583  01C7  1903               	skipnz
  4584  01C8  0AA3               	incf	(___almod@dividend+3),f
  4585                           	
  4586  01C9                     l30000960:	
  4587                           	line	11
  4588  01C9  01F1               	clrf	(___almod@sign)
  4589  01CA  1403               	bsf	status,0
  4590  01CB  0DF1               	rlf	(___almod@sign),f
  4591                           	
  4592  01CC                     l30000961:	
  4593                           	line	13
  4594  01CC  1FA7               	btfss	(___almod@divisor+3),7
  4595  01CD  29CF               	goto	u2171
  4596  01CE  29D0               	goto	u2170
  4597  01CF                     u2171:
  4598  01CF  29DB               	goto	l30000963
  4599  01D0                     u2170:
  4600                           	
  4601  01D0                     l30000962:	
  4602                           	line	14
  4603  01D0  09A4               	comf	(___almod@divisor),f
  4604  01D1  09A5               	comf	(___almod@divisor+1),f
  4605  01D2  09A6               	comf	(___almod@divisor+2),f
  4606  01D3  09A7               	comf	(___almod@divisor+3),f
  4607  01D4  0AA4               	incf	(___almod@divisor),f
  4608  01D5  1903               	skipnz
  4609  01D6  0AA5               	incf	(___almod@divisor+1),f
  4610  01D7  1903               	skipnz
  4611  01D8  0AA6               	incf	(___almod@divisor+2),f
  4612  01D9  1903               	skipnz
  4613  01DA  0AA7               	incf	(___almod@divisor+3),f
  4614                           	
  4615  01DB                     l30000963:	
  4616                           	line	15
  4617  01DB  0827               	movf	(___almod@divisor+3),w
  4618  01DC  0426               	iorwf	(___almod@divisor+2),w
  4619  01DD  0425               	iorwf	(___almod@divisor+1),w
  4620  01DE  0424               	iorwf	(___almod@divisor),w
  4621  01DF  1903               	skipnz
  4622  01E0  29E2               	goto	u2181
  4623  01E1  29E3               	goto	u2180
  4624  01E2                     u2181:
  4625  01E2  2A27               	goto	l30000971
  4626  01E3                     u2180:
  4627                           	
  4628  01E3                     l30000964:	
  4629                           	line	16
  4630  01E3  01F2               	clrf	(___almod@counter)
  4631  01E4  1403               	bsf	status,0
  4632  01E5  0DF2               	rlf	(___almod@counter),f
  4633  01E6  29F4               	goto	l30000966
  4634                           	
  4635  01E7                     l30000965:	
  4636                           	line	18
  4637  01E7  3001               	movlw	01h
  4638  01E8  00F0               	movwf	(??___almod+0+0)
  4639  01E9                     u2195:
  4640  01E9  1003               	clrc
  4641  01EA  0DA4               	rlf	(___almod@divisor),f
  4642  01EB  0DA5               	rlf	(___almod@divisor+1),f
  4643  01EC  0DA6               	rlf	(___almod@divisor+2),f
  4644  01ED  0DA7               	rlf	(___almod@divisor+3),f
  4645  01EE  0BF0               	decfsz	(??___almod+0+0)
  4646  01EF  29E9               	goto	u2195
  4647                           	line	19
  4648  01F0  3001               	movlw	(01h)
  4649  01F1  00F0               	movwf	(??___almod+0+0)
  4650  01F2  0870               	movf	(??___almod+0+0),w
  4651  01F3  07F2               	addwf	(___almod@counter),f
  4652                           	
  4653  01F4                     l30000966:	
  4654                           	line	17
  4655  01F4  1FA7               	btfss	(___almod@divisor+3),(31)&7
  4656  01F5  29F7               	goto	u2201
  4657  01F6  29F8               	goto	u2200
  4658  01F7                     u2201:
  4659  01F7  29E7               	goto	l30000965
  4660  01F8                     u2200:
  4661                           	
  4662  01F8                     l30000967:	
  4663                           	line	22
  4664  01F8  0827               	movf	(___almod@divisor+3),w
  4665  01F9  0223               	subwf	(___almod@dividend+3),w
  4666  01FA  1D03               	skipz
  4667  01FB  2A06               	goto	u2215
  4668  01FC  0826               	movf	(___almod@divisor+2),w
  4669  01FD  0222               	subwf	(___almod@dividend+2),w
  4670  01FE  1D03               	skipz
  4671  01FF  2A06               	goto	u2215
  4672  0200  0825               	movf	(___almod@divisor+1),w
  4673  0201  0221               	subwf	(___almod@dividend+1),w
  4674  0202  1D03               	skipz
  4675  0203  2A06               	goto	u2215
  4676  0204  0824               	movf	(___almod@divisor),w
  4677  0205  0220               	subwf	(___almod@dividend),w
  4678  0206                     u2215:
  4679  0206  1C03               	skipc
  4680  0207  2A09               	goto	u2211
  4681  0208  2A0A               	goto	u2210
  4682  0209                     u2211:
  4683  0209  2A18               	goto	l30000969
  4684  020A                     u2210:
  4685                           	
  4686  020A                     l30000968:	
  4687                           	line	23
  4688  020A  0824               	movf	(___almod@divisor),w
  4689  020B  02A0               	subwf	(___almod@dividend),f
  4690  020C  0825               	movf	(___almod@divisor+1),w
  4691  020D  1C03               	skipc
  4692  020E  0F25               	incfsz	(___almod@divisor+1),w
  4693  020F  02A1               	subwf	(___almod@dividend+1),f
  4694  0210  0826               	movf	(___almod@divisor+2),w
  4695  0211  1C03               	skipc
  4696  0212  0F26               	incfsz	(___almod@divisor+2),w
  4697  0213  02A2               	subwf	(___almod@dividend+2),f
  4698  0214  0827               	movf	(___almod@divisor+3),w
  4699  0215  1C03               	skipc
  4700  0216  0F27               	incfsz	(___almod@divisor+3),w
  4701  0217  02A3               	subwf	(___almod@dividend+3),f
  4702                           	
  4703  0218                     l30000969:	
  4704                           	line	24
  4705  0218  3001               	movlw	01h
  4706  0219                     u2225:
  4707  0219  1003               	clrc
  4708  021A  0CA7               	rrf	(___almod@divisor+3),f
  4709  021B  0CA6               	rrf	(___almod@divisor+2),f
  4710  021C  0CA5               	rrf	(___almod@divisor+1),f
  4711  021D  0CA4               	rrf	(___almod@divisor),f
  4712  021E  3EFF               	addlw	-1
  4713  021F  1D03               	skipz
  4714  0220  2A19               	goto	u2225
  4715                           
  4716                           	
  4717  0221                     l30000970:	
  4718                           	line	25
  4719  0221  3001               	movlw	low(01h)
  4720  0222  02F2               	subwf	(___almod@counter),f
  4721  0223  1D03               	btfss	status,2
  4722  0224  2A26               	goto	u2231
  4723  0225  2A27               	goto	u2230
  4724  0226                     u2231:
  4725  0226  29F8               	goto	l30000967
  4726  0227                     u2230:
  4727                           	
  4728  0227                     l30000971:	
  4729                           	line	27
  4730  0227  0871               	movf	(___almod@sign),w
  4731  0228  1D03               	skipz
  4732  0229  2A2B               	goto	u2240
  4733  022A  2A36               	goto	l252
  4734  022B                     u2240:
  4735                           	
  4736  022B                     l30000972:	
  4737                           	line	28
  4738  022B  09A0               	comf	(___almod@dividend),f
  4739  022C  09A1               	comf	(___almod@dividend+1),f
  4740  022D  09A2               	comf	(___almod@dividend+2),f
  4741  022E  09A3               	comf	(___almod@dividend+3),f
  4742  022F  0AA0               	incf	(___almod@dividend),f
  4743  0230  1903               	skipnz
  4744  0231  0AA1               	incf	(___almod@dividend+1),f
  4745  0232  1903               	skipnz
  4746  0233  0AA2               	incf	(___almod@dividend+2),f
  4747  0234  1903               	skipnz
  4748  0235  0AA3               	incf	(___almod@dividend+3),f
  4749                           	
  4750  0236                     l252:	
  4751                           	line	29
  4752                           	
  4753  0236                     l241:	
  4754  0236  0008               	return
  4755                           	opt stack 0
  4756                           GLOBAL	__end_of___almod
  4757  0237                     	__end_of___almod:
  4758                           ; =============== function ___almod ends ============
  4759                           
  4760                           psect	text149,local,class=CODE,delta=2
  4761                           global __ptext149
  4762  0137                     __ptext149:
  4763                           	line	30
  4764                           	signat	___almod,8316
  4765                           	global	___ftpack
  4766                           
  4767                           ; *************** function ___ftpack *****************
  4768                           ; Defined at:
  4769                           ;		line 63 in file "C:\Program Files (x86)\HI-TECH Software\PICC\9.70\sources\float.c"
  4770                           ; Parameters:    Size  Location     Type
  4771                           ;  arg             3    0[BANK0 ] unsigned um
  4772                           ;  exp             1    3[BANK0 ] unsigned char 
  4773                           ;  sign            1    4[BANK0 ] unsigned char 
  4774                           ; Auto vars:     Size  Location     Type
  4775                           ;		None
  4776                           ; Return value:  Size  Location     Type
  4777                           ;                  3    0[BANK0 ] float 
  4778                           ; Registers used:
  4779                           ;		wreg, status,2, status,0
  4780                           ; Tracked objects:
  4781                           ;		On entry : 0/0
  4782                           ;		On exit  : 0/0
  4783                           ;		Unchanged: 0/0
  4784                           ; Data sizes:     COMMON   BANK0   BANK1   BANK3   BANK2
  4785                           ;      Locals:         3       5       0       0       0
  4786                           ;      Temp:     3
  4787                           ;      Total:    8
  4788                           ; This function calls:
  4789                           ;		Nothing
  4790                           ; This function is called by:
  4791                           ;		___ftadd
  4792                           ;		___ftmul
  4793                           ;		___awtoft
  4794                           ; This function uses a non-reentrant model
  4795                           ; 
  4796                           psect	text149
  4797                           	file	"C:\Program Files (x86)\HI-TECH Software\PICC\9.70\sources\float.c"
  4798                           	line	63
  4799                           	global	__size_of___ftpack
  4800  007C                     	__size_of___ftpack	equ	__end_of___ftpack-___ftpack
  4801                           	
  4802  0137                     ___ftpack:	
  4803                           	opt stack 5
  4804                           ; Regs used in ___ftpack: [wreg+status,2+status,0]
  4805                           	line	64
  4806                           	
  4807  0137                     l30000733:	
  4808  0137  1283               	bcf	status, 5	;RP0=0, select bank0
  4809  0138  1303               	bcf	status, 6	;RP1=0, select bank0
  4810  0139  0823               	movf	(___ftpack@exp),w
  4811  013A  1D03               	skipz
  4812  013B  293D               	goto	u1270
  4813  013C  2944               	goto	l30000735
  4814  013D                     u1270:
  4815                           	
  4816  013D                     l30000734:	
  4817  013D  0822               	movf	(___ftpack@arg+2),w
  4818  013E  0421               	iorwf	(___ftpack@arg+1),w
  4819  013F  0420               	iorwf	(___ftpack@arg),w
  4820  0140  1D03               	skipz
  4821  0141  2943               	goto	u1281
  4822  0142  2944               	goto	u1280
  4823  0143                     u1281:
  4824  0143  2957               	goto	l30000738
  4825  0144                     u1280:
  4826                           	
  4827  0144                     l30000735:	
  4828                           	line	65
  4829  0144  3000               	movlw	0x0
  4830  0145  00A0               	movwf	(?___ftpack)
  4831  0146  3000               	movlw	0x0
  4832  0147  00A1               	movwf	(?___ftpack+1)
  4833  0148  3000               	movlw	0x0
  4834  0149  00A2               	movwf	(?___ftpack+2)
  4835  014A  29B2               	goto	l370
  4836                           	
  4837  014B                     l30000737:	
  4838                           	line	67
  4839  014B  3001               	movlw	(01h)
  4840  014C  00F0               	movwf	(??___ftpack+0+0)
  4841  014D  0870               	movf	(??___ftpack+0+0),w
  4842  014E  07A3               	addwf	(___ftpack@exp),f
  4843                           	line	68
  4844  014F  3001               	movlw	01h
  4845  0150                     u1295:
  4846  0150  1003               	clrc
  4847  0151  0CA2               	rrf	(___ftpack@arg+2),f
  4848  0152  0CA1               	rrf	(___ftpack@arg+1),f
  4849  0153  0CA0               	rrf	(___ftpack@arg),f
  4850  0154  3EFF               	addlw	-1
  4851  0155  1D03               	skipz
  4852  0156  2950               	goto	u1295
  4853                           
  4854                           	
  4855  0157                     l30000738:	
  4856                           	line	66
  4857  0157  30FE               	movlw	low highword(0FE0000h)
  4858  0158  0522               	andwf	(___ftpack@arg+2),w
  4859  0159  1D03               	btfss	status,2
  4860  015A  295C               	goto	u1301
  4861  015B  295D               	goto	u1300
  4862  015C                     u1301:
  4863  015C  294B               	goto	l30000737
  4864  015D                     u1300:
  4865  015D  297A               	goto	l375
  4866                           	
  4867  015E                     l30000739:	
  4868                           	line	71
  4869  015E  3001               	movlw	(01h)
  4870  015F  00F0               	movwf	(??___ftpack+0+0)
  4871  0160  0870               	movf	(??___ftpack+0+0),w
  4872  0161  07A3               	addwf	(___ftpack@exp),f
  4873                           	
  4874  0162                     l30000740:	
  4875                           	line	72
  4876  0162  3001               	movlw	01h
  4877  0163  07A0               	addwf	(___ftpack@arg),f
  4878  0164  3000               	movlw	0
  4879  0165  1103               	clrz
  4880  0166  1803               	skipnc
  4881  0167  3E01               	addlw	1
  4882  0168  1903               	skipnz
  4883  0169  296B               	goto	u1311
  4884  016A  07A1               	addwf	(___ftpack@arg+1),f
  4885  016B                     u1311:
  4886  016B  3000               	movlw	0
  4887  016C  1103               	clrz
  4888  016D  1803               	skipnc
  4889  016E  3E01               	addlw	1
  4890  016F  1903               	skipnz
  4891  0170  2972               	goto	u1312
  4892  0171  07A2               	addwf	(___ftpack@arg+2),f
  4893  0172                     u1312:
  4894                           
  4895                           	
  4896  0172                     l30000741:	
  4897                           	line	73
  4898  0172  3001               	movlw	01h
  4899  0173                     u1325:
  4900  0173  1003               	clrc
  4901  0174  0CA2               	rrf	(___ftpack@arg+2),f
  4902  0175  0CA1               	rrf	(___ftpack@arg+1),f
  4903  0176  0CA0               	rrf	(___ftpack@arg),f
  4904  0177  3EFF               	addlw	-1
  4905  0178  1D03               	skipz
  4906  0179  2973               	goto	u1325
  4907                           
  4908                           	
  4909  017A                     l375:	
  4910                           	line	70
  4911  017A  30FF               	movlw	low highword(0FF0000h)
  4912  017B  0522               	andwf	(___ftpack@arg+2),w
  4913  017C  1D03               	btfss	status,2
  4914  017D  297F               	goto	u1331
  4915  017E  2980               	goto	u1330
  4916  017F                     u1331:
  4917  017F  295E               	goto	l30000739
  4918  0180                     u1330:
  4919  0180  298B               	goto	l30000743
  4920                           	
  4921  0181                     l30000742:	
  4922                           	line	76
  4923  0181  3001               	movlw	low(01h)
  4924  0182  02A3               	subwf	(___ftpack@exp),f
  4925                           	line	77
  4926  0183  3001               	movlw	01h
  4927  0184                     u1345:
  4928  0184  1003               	clrc
  4929  0185  0DA0               	rlf	(___ftpack@arg),f
  4930  0186  0DA1               	rlf	(___ftpack@arg+1),f
  4931  0187  0DA2               	rlf	(___ftpack@arg+2),f
  4932  0188  3EFF               	addlw	-1
  4933  0189  1D03               	skipz
  4934  018A  2984               	goto	u1345
  4935                           	
  4936  018B                     l30000743:	
  4937                           	line	75
  4938  018B  1FA1               	btfss	(___ftpack@arg+1),(15)&7
  4939  018C  298E               	goto	u1351
  4940  018D  298F               	goto	u1350
  4941  018E                     u1351:
  4942  018E  2981               	goto	l30000742
  4943  018F                     u1350:
  4944                           	
  4945  018F                     l380:	
  4946                           	line	79
  4947  018F  1823               	btfsc	(___ftpack@exp),(0)&7
  4948  0190  2992               	goto	u1361
  4949  0191  2993               	goto	u1360
  4950  0192                     u1361:
  4951  0192  2999               	goto	l381
  4952  0193                     u1360:
  4953                           	
  4954  0193                     l30000744:	
  4955                           	line	80
  4956  0193  30FF               	movlw	0FFh
  4957  0194  05A0               	andwf	(___ftpack@arg),f
  4958  0195  307F               	movlw	07Fh
  4959  0196  05A1               	andwf	(___ftpack@arg+1),f
  4960  0197  30FF               	movlw	0FFh
  4961  0198  05A2               	andwf	(___ftpack@arg+2),f
  4962                           	
  4963  0199                     l381:	
  4964                           	line	81
  4965  0199  1003               	clrc
  4966  019A  0CA3               	rrf	(___ftpack@exp),f
  4967                           
  4968                           	
  4969  019B                     l30000745:	
  4970                           	line	82
  4971  019B  0823               	movf	(___ftpack@exp),w
  4972  019C  00F0               	movwf	(??___ftpack+0+0)
  4973  019D  01F1               	clrf	(??___ftpack+0+0+1)
  4974  019E  01F2               	clrf	(??___ftpack+0+0+2)
  4975  019F  3010               	movlw	010h
  4976  01A0                     u1375:
  4977  01A0  1003               	clrc
  4978  01A1  0DF0               	rlf	(??___ftpack+0+0),f
  4979  01A2  0DF1               	rlf	(??___ftpack+0+1),f
  4980  01A3  0DF2               	rlf	(??___ftpack+0+2),f
  4981  01A4                     u1370:
  4982  01A4  3EFF               	addlw	-1
  4983  01A5  1D03               	skipz
  4984  01A6  29A0               	goto	u1375
  4985  01A7  0870               	movf	0+(??___ftpack+0+0),w
  4986  01A8  04A0               	iorwf	(___ftpack@arg),f
  4987  01A9  0871               	movf	1+(??___ftpack+0+0),w
  4988  01AA  04A1               	iorwf	(___ftpack@arg+1),f
  4989  01AB  0872               	movf	2+(??___ftpack+0+0),w
  4990  01AC  04A2               	iorwf	(___ftpack@arg+2),f
  4991                           	
  4992  01AD                     l30000746:	
  4993                           	line	83
  4994  01AD  0824               	movf	(___ftpack@sign),w
  4995  01AE  1D03               	skipz
  4996  01AF  29B1               	goto	u1380
  4997  01B0  29B2               	goto	l382
  4998  01B1                     u1380:
  4999                           	
  5000  01B1                     l30000747:	
  5001                           	line	84
  5002  01B1  17A2               	bsf	(___ftpack@arg)+(23/8),(23)&7
  5003                           	
  5004  01B2                     l382:	
  5005                           	line	85
  5006                           	
  5007  01B2                     l370:	
  5008  01B2  0008               	return
  5009                           	opt stack 0
  5010                           GLOBAL	__end_of___ftpack
  5011  01B3                     	__end_of___ftpack:
  5012                           ; =============== function ___ftpack ends ============
  5013                           
  5014                           psect	text150,local,class=CODE,delta=2
  5015                           global __ptext150
  5016  0003                     __ptext150:
  5017                           	line	86
  5018                           	signat	___ftpack,12411
  5019                           	global	btemp
  5020  007E                     	btemp set 07Eh


HI-TECH Software PICC Macro Assembler V9.70 build 5239 
Symbol Table                                                                                   Thu Oct 06 01:28:55 2016

         ___aldiv@sign 0021                      l1 0136                      l8 00E1                      pc 0002  
                   l20 07FF                     _DA 04A5                     _BF 04A0                     l15 0F88  
                   _DC 0019                     l33 008F                     l27 038E                     l28 0049  
                   l81 0577                     l90 05ED                     l82 057C                     l78 066F  
                   _PD 001B                     _RD 0C60                     _UA 04A1                     _TO 001C  
                   _RW 04A2                     _WR 0C61                     fsr 0004        __size_of___lmul 0048  
         ___almod@sign 0071           lcd_command@i 0072           lcd_command@x 0071                    l101 0FFF  
                  l114 0523                    l206 0F62                    l207 0F5C                    l241 0236  
                  l252 0236                    l253 02D8                    l167 0447                    l183 0FB7  
                  l370 01B2                    l380 018F                    l381 0199                    l382 01B2  
                  _CM0 04E0                    l375 017A                    _CM1 04E1                    _CM2 04E2  
                  _CKE 04A6                    _IBF 044F                    _CIS 04E3               ___awtoft 0F89  
                  _CKP 00A4                    _GIE 005F                    _BOR 0470                    _RA0 0028  
             ___ftpack 0137                    _RA1 0029                    _RB0 0030                    _RA2 002A  
                  _RB1 0031                    _RA3 002B                    _RC0 0038                    _RB2 0032  
                  _RA4 002C                    _RC1 0039                    _RB3 0033                    _RA5 002D  
                  _RD0 0040                    _RC2 003A                    _RB4 0034                    _RD1 0041  
                  _RC3 003B                    _RB5 0035                    _RE0 0048                    _RD2 0042  
                  _RC4 003C                    _RB6 0036                    _RE1 0049                    _RD3 0043  
                  _RC5 003D                    _RB7 0037                    _RE2 004A                    _RD4 0044  
                  _RC6 003E                    _RD5 0045                    _RC7 003F                    _OBF 044E  
                  _RD6 0046                    _RD7 0047                    _FSR 0004                    _PCL 0002  
                  _PS0 0408                    _PR2 0092                    _PS1 0409                    _PS2 040A  
                  _PEN 048A                    _RP0 001D                    _IRP 001F                    _RP1 001E  
                  _SEN 0488                    _PSA 040B                    _POR 0471                    _RX9 00C6  
                  _SMP 04A7                    _TX9 04C6              ?___awtoft 0028              ?___ftpack 0020  
                  fsr0 0004                    indf 0000       __size_of___aldiv 00A2       __size_of___almod 0084  
      ___aldiv@divisor 002A       __size_of___ftadd 014C       __size_of___ftneg 0012        ___aldiv@counter 0020  
     __size_of___ftmul 00DC       __size_of___fttol 00B9             ??___awtoft 0078             ??___ftpack 0070  
                 _ADIE 0466                   _ADIF 0066                   _ADFM 04FF                   _ADGO 00FA  
     ___almod@dividend 0020                   _ADON 00F8                   _CHS0 00FB                   _CHS1 00FC  
                 _CHS2 00FD                   _EEIE 046C                   _EEIF 006C                   _GCEN 048F  
                 _CMIE 046E                   _CMIF 006E                   _BRGH 04C2                   _T0IE 005D  
                 u1000 0459                   _T0IF 005A                   _CREN 00C4                   u1001 0458  
                 _T0CS 040D                   u1010 046F                   _FERR 00C2                   u1011 046E  
                 u1020 0486                   u1101 04EA                   u1102 04F1                   u1030 0496  
                 u2000 03CC                   u1040 04B5                   u1041 04B4                   u1025 0482  
                 u2010 03F1                   u1130 0507                   u2011 03F0                   u1131 0506  
                 u1115 04F2                   u1051 04BE                   u1035 0492                   u1300 015D  
                 u2020 03F8                   u2100 0718                   u1052 04C5                   _IBOV 044D  
                 _CVR0 04E8                   u1301 015C                   u2021 03F7                   u2005 03C8  
                 u2101 0717                   u1125 04FA                   _CVR1 04E9                   u2110 07FF  
                 _CVR2 04EA                   u1311 016B                   u2111 07FE                   _CVR3 04EB  
                 u1312 0172                   u2200 01F8                   u2120 00B3                   u2040 040A  
                 u2104 0712                   u1400 0544                   u1080 04DB                   u2201 01F7  
                 u2121 00B2                   u2041 0409                   u1401 0543                   u1081 04DA  
                 u1065 04C6                   u1330 0180                   u2210 020A                   u2050 0411  
                 u2114 07F9                   u1410 054E                   u1090 04E1                   u1331 017F  
                 u2211 0209                   u2051 0410                   u2035 03FA                   u1411 054D  
                 u1091 04E0                   u1075 04CE                   _T0SE 040C                   _CSRC 04C7  
                 u2140 00DD                   u1500 05A8                   u1420 0559                   u1325 0173  
                 u2141 00DC                   u2125 00AF                   u1501 05A7                   u1350 018F  
                 u1270 013D                   u2230 0227                   u2310 02A3                   u2070 0422  
                 u1430 055F                   u2150 0049                   _INDF 0000                   u1351 018E  
                 u2231 0226                   u2215 0206                   u2311 02A2                   u2135 00BF  
                 u2071 0421                   u1431 055E                   u2151 0048                   u1360 0193  
                 u1280 0144                   u2240 022B                   u2160 01BE                   u2080 0426  
                 u1520 05BB                   u1440 0569                   u1361 0192                   u1345 0184  
                 u1281 0143                   u2225 0219                   u2161 01BD                   u2305 028A  
                 u2145 00D9                   u2065 0414                   u1601 0600                   u1521 05BA  
                 u1441 0568                   u1370 01A4                   u2170 01D0                   u2330 02C1  
                 u2250 0242                   u1610 060B                   u1602 0607                   u1530 05C2  
                 u1450 0576                   u2090 0052                   u2171 01CF                   u2331 02C0  
                 u2315 029F                   u2251 0241                   u1611 060A                   u1531 05C1  
                 u1515 05AA                   u1451 0575                   u2155 0045                   u1380 01B1  
                 u2180 01E3                   u2340 02C5                   u2260 0254                   u1460 057B  
                 u2181 01E2                   u2325 02B3                   u2261 0253                   u1621 061A  
                 u1461 057A                   u2350 0FC6                   u2270 0273                   u1622 0621  
                 u1550 05D2                   u1470 0590                   u1390 053E                   u1375 01A0  
                 u1295 0150                   u2351 0FC5                   u2271 0272                   u1631 062F  
                 u1551 05D1                   u1471 058F                   u1640 063A                   u1632 0636  
                 u1560 05DA                   u2361 0FCF                   u1641 0639                   u1561 05D9  
                 u1545 05C3                   u2362 0FD6                   u2290 0288                   u1490 05A0  
                 u2195 01E9                   u2363 0FDD                   u2291 0287                   u1651 0649  
                 u1491 059F                   u1652 0650                   u1580 05ED                   u1660 0F94  
                 u2285 0279                   u1581 05EC                   u1485 0591                   u1661 0F93  
                 u2390 0FF7                   u1590 05F1                   u1670 0F5A                   u2391 0FF6  
                 u2375 0FDF                   u1591 05F0                   u1575 05DC                   u1671 0F59  
                 _PIE1 008C                   _PIE2 008D                   u2385 0FE7                   _CVRR 04ED  
                 u1960 0105                   u1961 0104                   _PEIE 005E                   u1980 0132  
                 u1981 0131                   u1965 0101                   _INTE 005C                   u1990 03AA  
                 _INTF 0059                   u1975 0111                   u1991 03A9                   _RBIE 005B  
                 _RBIF 0058                   u1985 012E                   _RCIE 0465                   _RCEN 048B  
                 _RCIF 0065                   _PCON 008E                   _PIR1 000C                   _PIR2 000D  
                 _OERR 00C1                   _RBPU 040F           __pidataBANK0 0F38                   _RX9D 00C0  
                 _TMR0 0001                   _TMR2 0011               _lcd_data 0093                   _WCOL 00A7  
                 _SPEN 00C7                   _RSEN 0489                   _TX9D 04C0                   _SREN 00C5  
                 _TRMT 04C1                   _STOP 04A4                   _TXIE 0464                   _ZERO 001A  
                 _WREN 0C62                   _TXEN 04C5                   _TXIF 0064                   _SYNC 04C4  
             _lcd_init 0F63           lcd_integer@m 00A8           lcd_integer@x 00AC           lcd_integer@y 00A4  
            ?_lcd_data 0074              ?_lcd_init 0074                   _main 004A       ___aldiv@dividend 0026  
                 btemp 007E      ___lmul@multiplier 0020           ___ftadd@exp1 0030           ___ftadd@exp2 002F  
           ??_lcd_data 0070                   start 0000           ___ftadd@sign 002E           lcd_pattern@i 0021  
         lcd_pattern@p 0020             ??_lcd_init 0071      __size_of___awtoft 002F      __size_of___ftpack 007C  
  start_initialization 0007             lcd_float@f 00B0                ?___lmul 0020        __end_of___aldiv 02D9  
             ??___lmul 0070        __end_of___almod 0237               main@F530 0058        __end_of___ftadd 0670  
      __end_of___ftneg 0F63        __end_of___ftmul 0524        __end_of___fttol 0448             ___ftadd@f1 0031  
           ___ftadd@f2 0034                _CCP1CON 0017                _CCP2CON 001D                _ACKSTAT 048E  
                _C1INV 04E4                  _C2INV 04E5      __size_of_lcd_data 004F                  _C1OUT 04E6  
                _C2OUT 04E7                  _ADCS0 00FE                  _ADCS1 00FF                  _ADCS2 04FE  
                _ADDEN 00C3                  ?_main 0058                  _ACKEN 048C                  _ACKDT 048D  
            __ptext140 0448              __ptext141 0524              __ptext150 0003              __ptext142 0670  
            __ptext143 038F              __ptext135 0019              __ptext144 00E2              __ptext136 02D9  
            __ptext145 0093              __ptext137 0F63              __ptext146 0237              __ptext138 0F89  
            __ptext147 0FB8              __ptext139 0F51              __ptext148 01B3      __size_of_lcd_init 0026  
            __ptext149 0137                  _BCLIE 046B                  _BCLIF 006B                  _CCP1X 00BD  
                _CCP1Y 00BC                  _CCP2X 00ED                  _CCP2Y 00EC                  _EEADR 010D  
           ___ftneg@f1 002B                  _CARRY 0018                  _EEPGD 0C67                  _CMCON 009C  
           ___awtoft@c 0028  ___ftmul@f3_as_product 003C                  _T1CON 0010                  _T2CON 0012  
              _T1CKPS0 0084                _T1CKPS1 0085                  _PCFG0 04F8                  _PCFG1 04F9  
                _PCFG2 04FA                  _PCFG3 04FB                _T2CKPS0 0090                _T2CKPS1 0091  
                _CVREN 04EF                  _CVROE 04EE                  _RCREG 001A             ___ftmul@f1 0041  
           ___ftmul@f2 0044                  _RCSTA 0018           ___ftpack@arg 0020                  _TMR1H 000F  
                _TMR1L 000E                  _SPBRG 0099                  _PORTA 0005                  _PORTB 0006  
              _T1OSCEN 0083                  _PORTC 0007                  _PORTD 0008                  _PORTE 0009  
                _PSPIE 0467                  _PSPIF 0067           ___ftpack@exp 0023                  _START 04A3  
                _SSPM0 00A0                  _SSPM1 00A1                  _SSPM2 00A2                  _SSPM3 00A3  
                _TRISA 0085                  _TRISB 0086                  _TRISC 0087                  _TRISD 0088  
                _SSPIE 0463                  _TRISE 0089                  _SSPIF 0063                  _SSPEN 00A5  
           ___fttol@f1 00A0                  _SSPOV 00A6                  _WRERR 0C63                  _TXREG 0019  
     ___aldiv@quotient 0022              _lcd_float 02D9                  _TXSTA 0098      __end_of_lcd_float 038F  
       __pcstackCOMMON 0070             ?_lcd_float 00B0           ___ftmul@cntr 003F                _PSPMODE 044C  
         ___ftmul@sign 0040                _SSPCON2 0091                _SSPSTAT 0094                _TOUTPS0 0093  
              _TOUTPS1 0094                _TOUTPS2 0095                _TOUTPS3 0096                  pclath 000A  
          _lcd_command 00E2           ___fttol@exp1 004F           ___fttol@lval 004B    __end_of_lcd_command 0137  
                status 0003            ??_lcd_float 0028            _lcd_integer 0670            _lcd_pattern 0019  
  __end_of_lcd_integer 0800    __end_of_lcd_pattern 004A          __size_of_main 0049               l30001000 0FF7  
             l30000740 0162               l30000900 03EB               l30000741 0172               l30000733 0137  
             l30000901 03ED               l30000742 0181               l30000734 013D               l30000910 041D  
             l30000902 03F1               l30000750 053E               l30000670 0459               l30000743 018B  
             l30000735 0144               l30000911 0422               l30000751 0544               l30000744 0193  
             l30000912 0426               l30000760 0572               l30000752 054E               l30000680 04AF  
             l30000672 0460               l30000920 0077               l30000745 019B               l30000737 014B  
             l30000913 0431               l30000905 03F9               l30000761 0576               l30000681 04B1  
             l30000673 046F               l30000921 007D               l30000746 01AD               l30000738 0157  
             l30000930 0098               l30000906 040B               l30000770 05BC               l30000762 057B  
             l30000754 0555               l30000690 04F9               l30000682 04B5               l30000922 0083  
             l30000747 01B1               l30000739 015E               l30000931 009D               l30000771 05C2  
             l30000763 057D               l30000755 0559               l30000691 0501               l30000683 04C5  
             l30000675 0476               l30000915 02D9               l30000923 0089               l30000940 00CC  
             l30000932 009E               l30000924 0670               l30000780 0626               l30000772 05CC  
             l30000764 0583               l30000756 055F               l30000748 0524               l30000692 0507  
             l30000684 04CD               l30000676 04A1               l30000916 004A               l30000941 00CD  
             l30000933 00A2               l30000909 0412               l30000925 0683               l30000781 0636  
             l30000773 05D2               l30000765 0590               l30000757 0569               l30000749 053A  
             l30000685 04D5               l30000677 04A2               l30000669 0448               l30000917 005F  
             l30000942 00DD               l30000934 00A3               l30000870 00F0               l30000926 06FD  
             l30000782 063A               l30000774 05DB               l30000766 059A               l30000686 04DB  
             l30000678 04A3               l30000950 001C               l30000918 0064               l30000935 00B3  
             l30000871 00F4               l30000927 0719               l30000783 0650               l30000775 05E7  
             l30000767 05A0               l30000759 0570               l30000687 04DD               l30000679 04A9  
             l30000791 0F51               l30000943 0F63               l30000951 0022               l30000919 006A  
             l30000960 01C9               l30000936 00B7               l30000880 0132               l30000872 00F5  
             l30000928 07E2               l30000784 0653               l30000776 05F1               l30000768 05A9  
             l30000688 04E1               l30000792 0F5A               l30000944 0F6A               l30000961 01CC  
             l30000937 00BB               l30000929 0094               l30000873 0105               l30000777 0607  
             l30000769 05B5               l30000689 04F1               l30000945 0F70               l30000970 0221  
             l30000962 01D0               l30000938 00C7               l30000874 0109               l30000778 060B  
             l30000786 0F89               l30000946 0F76               l30000954 0028               l30000971 0227  
             l30000963 01DB               l30000939 00C8               l30000875 010D               l30000867 00E3  
             l30000779 0621               l30000787 0F90               l30000947 0F7C               l30000955 0034  
             l30000972 022B               l30000964 01E3               l30000980 0263               l30000876 0119  
             l30000868 00E7               l30000788 0F94               l30000948 0F82               l30000956 003C  
             l30000965 01E7               l30000957 01B3               l30000981 026B               l30000973 0237  
             l30000877 011D               l30000869 00EC               l30000893 038F               l30000789 0F9C  
             l30000949 001C               l30000966 01F4               l30000958 01B8               l30000990 02BB  
             l30000982 0273               l30000974 023E               l30000878 0121               l30000894 03AA  
             l30000967 01F8               l30000959 01BE               l30000983 0277               l30000991 02C1  
             l30000975 0242               l30000879 0122               l30000968 020A               l30000992 02C5  
             l30000984 0284               l30000976 024D               l30000896 03B5               l30000969 0218  
             l30000993 02D0               l30000985 0288               l30000977 0250               l30000897 03D1  
             l30000986 0291               l30000978 0254               l30000898 03D4               l30000995 0FB8  
             l30000987 02A3               l30000979 025F               l30000899 03DA               l30000996 0FC0  
             l30000988 02B1               l30000997 0FC6               l30000989 02B2               l30000998 0FDD  
             l30000999 0FE6                ___aldiv 0237                ___almod 01B3                ___ftadd 0524  
             ?___aldiv 0026               ?___almod 0020                ___ftneg 0F51                ___ftmul 0448  
              ___fttol 038F               ?___ftadd 0031               ?___ftneg 002B               ?___ftmul 0041  
             ?___fttol 00A0              ??___aldiv 0070           ?_lcd_command 0074              ??___almod 0070  
            ??___ftadd 007A              ??___ftneg 0075              ??___ftmul 0037              ??___fttol 0047  
               ??_main 0054           ?_lcd_integer 00AC       __end_of___awtoft 0FB8       __end_of___ftpack 01B3  
      ___almod@divisor 0024           ?_lcd_pattern 0075        ___almod@counter 0072             __pmaintext 004A  
 __size_of_lcd_command 0055              lcd_data@i 0072              lcd_data@x 0071   __size_of_lcd_integer 0190  
 __size_of_lcd_pattern 0031         __end_of___lmul 1000                 _ADCON0 001F                 _ADCON1 009F  
               _CCP1M0 00B8                 _CCP1M1 00B9                 _CCP1M2 00BA                 _CCP1M3 00BB  
   __size_of_lcd_float 00B6                 _CCP2M0 00E8                 _CCP2M1 00E9                 _CCP2M2 00EA  
               _CCP2M3 00EB                 _CCP1IE 0462                 _CCP1IF 0062                 _CCP2IE 0468  
               _CCP2IF 0068                 _ADRESH 001E                 _EEADRH 010F                 _ADRESL 009E  
               _EEADRL 010D                 _EEDATA 010C                 _CCPR1H 0016                 _EEDATH 010E  
               _CCPR2H 001C                 _CCPR1L 0015                 _CCPR2L 001B            main@pattern 00B3  
               _EECON1 018C                 _EECON2 018D           __end_of_main 0093                 _GODONE 00FA  
 end_of_initialization 0015       __end_of_lcd_data 00E2                 _CVRCON 009D                 _T1SYNC 0082  
               _INTEDG 040E                 _PCLATH 000A                 _INTCON 000B       __end_of_lcd_init 0F89  
        __pcstackBANK0 0020          __pcstackBANK1 00A0          ___awtoft@sign 0027          _lcd_float$755 0051  
               _TMR0IE 005D                 _TMR0IF 005A                 _TMR1IE 0460                 _TMR1IF 0060  
               _TMR1CS 0081                 _TMR2IE 0461                 _TMR2IF 0061                 _OPTION 0081  
               _TMR1ON 0080                 _TMR2ON 0092            ___ftmul@exp 003B                 _SSPADD 0093  
               _TRISA0 0428                 _TRISA1 0429                 _TRISB0 0430                 _TRISA2 042A  
               _TRISB1 0431                 _TRISA3 042B                 _TRISC0 0438                 _TRISB2 0432  
               _TRISA4 042C                 _TRISC1 0439                 _TRISB3 0433                 _TRISA5 042D  
               _TRISD0 0440                 _TRISC2 043A                 _TRISB4 0434                 _TRISD1 0441  
               _TRISC3 043B                 _TRISB5 0435                 _TRISE0 0448                 _TRISD2 0442  
               _TRISC4 043C                 _TRISB6 0436                 _TRISE1 0449                 _TRISD3 0443  
               _TRISC5 043D                 _TRISB7 0437                 _TRISE2 044A                 _TRISD4 0444  
               _TRISC6 043E                 _TRISD5 0445                 _TRISC7 043F                 _TRISD6 0446  
               _TRISD7 0447                 _STATUS 0003          ___ftpack@sign 0024                 _SSPCON 0014  
               _SSPBUF 0013                init_ram 0F44                 ___lmul 0FB8          ??_lcd_command 0070  
            init_fetch 0F40    ___lmul@multiplicand 0024          ??_lcd_integer 0050          ??_lcd_pattern 0074  
        ___fttol@sign1 004A         ___lmul@product 0071            __pdataBANK0 0058  
